(lp1
I33381244
aI170341421
aI109831319
aI265144425
aI14686869
aI244191250
aI235891944
aI5867832
aI303758724
aI192177258
aI328916657
aI6670882
aI334609084
aI249260397
aI239761798
aI4977761
aI15463610
aI40870068
aI322856472
aI37536288
aI86128942
aI205518723
aI337840106
aI85710150
aI14893211
aI21274928
aI270998809
aI42035284
aI36435136
aI105261669
aI20156295
aI26505278
aI59817171
aI12520342
aI15818650
aI337257234
aI161605024
aI17782328
aI17111217
aI259914411
aI313721717
aI193059012
aI300494042
aI288875074
aI278458292
aI309633248
aI176737258
aI336073260
aI49228786
aI330523785
aI77707312
aI755113
aI36334809
aI16362826
aI15256689
aI308931672
aI84346386
aI582813
aI282550143
aI335716876
aI293207415
aI178716769
aI14348414
aI43994173
aI334985839
aI200148771
aI166859523
aI8158572
aI27938943
aI283831127
aI15339875
aI17201399
aI25980375
aI14637833
aI308475397
aI331898099
aI44844783
aI72284356
aI168741488
aI252923248
aI213086277
aI40248813
aI16661747
aI16911776
aI47938952
aI14600764
aI14356132
aI326759265
aI19906932
aI9452322
aI221696828
aI14305066
aI72554641
aI20671645
aI14990052
aI34487253
aI285202951
aI158037639
aI288398158
aI332173215
aI172819835
aI31001487
aI115062713
aI239540280
aI264738267
aI29536340
aI320719343
aI118566385
aI15058946
aI330991151
aI41031035
aI193634406
aI193464627
aI54876668
aI15704419
aI15821188
aI45399284
aI84919620
aI103299888
aI293117744
aI39359039
aI5746882
aI317126968
aI71923632
aI32976838
aI268075810
aI249305371
aI113581462
aI43615697
aI8739212
aI20739585
aI238835239
aI332778166
aI332194153
aI330209609
aI320195716
aI144573444
aI56550970
aI79346406
aI289439422
aI195545447
aI44837102
aI16059785
aI35543843
aI50578554
aI14932678
aI14621493
aI303019434
aI15245176
aI329684891
aI101623516
aI168799654
aI251803783
aI1761301
aI111064222
aI138075253
aI17893119
aI18664149
aI331496784
aI15225334
aI106312034
aI331278056
aI328905660
aI323676876
aI317328512
aI288865877
aI16991665
aI50699423
aI76927142
aI179547014
aI106825380
aI113372422
aI166836865
aI56975205
aI15339686
aI329249500
aI163327742
aI8472272
aI15345227
aI202299567
aI92901498
aI330527190
aI15193273
aI330505172
aI141306388
aI326096540
aI291370114
aI270052245
aI15352520
aI8860402
aI149099539
aI15569064
aI327154090
aI316889111
aI317399648
aI164005471
aI15189855
aI327388116
aI20275120
aI307545133
aI322880889
aI311872188
aI195007168
aI271557317
aI14257600
aI50622237
aI3969771
aI329191548
aI177029616
aI12301652
aI100262527
aI4620841
aI14746623
aI165334021
aI27632083
aI56330007
aI15023803
aI26353784
aI15480317
aI328228559
aI299186512
aI14275780
aI315125894
aI282860105
aI327406731
aI18039110
aI27255443
aI15282933
aI20131527
aI19791535
aI327295904
aI191418298
aI12594812
aI317977424
aI18503033
aI313984736
aI16559767
aI11022012
aI15953354
aI120971457
aI22182807
aI86799067
aI14542398
aI326720997
aI27338703
aI325415696
aI126330684
aI303837692
aI7811522
aI7789732
aI299386212
aI19318068
aI326188792
aI58225585
aI25096930
aI18716726
aI185381097
aI4268601
aI9135172
aI14252342
aI325640194
aI266267605
aI12811292
aI317440203
aI325528033
aI9155142
aI306611546
aI17538711
aI131530010
aI93638743
aI324807194
aI7966272
aI325261515
aI139267038
aI5712692
aI164930478
aI15022489
aI13295702
aI24750436
aI21798743
aI14874336
aI244884461
aI49282421
aI308237490
aI15931064
aI259756290
aI317335734
aI186149946
aI14984915
aI50744623
aI317136863
aI322885136
aI322495330
aI29776650
aI104335290
aI46831755
aI324762931
aI14480957
aI192540894
aI248933610
aI324698286
aI36244352
aI39981205
aI319148545
aI16173315
aI15941673
aI109057612
aI152599855
aI228935575
aI322787327
aI47234539
aI1750241
aI308629854
aI322835810
aI284902795
aI277398735
aI21329689
aI322578301
aI18757373
aI99173786
aI323401632
aI236615771
aI29199126
aI23329031
aI7160502
aI14721255
aI281588016
aI323084530
aI245833401
aI21684189
aI301849088
aI204943577
aI254527625
aI222561347
aI14785657
aI39692025
aI226795880
aI167032017
aI42792786
aI52340874
aI321677058
aI17117855
aI54117801
aI47577265
aI9272612
aI171551808
aI259698651
aI107031514
aI5539592
aI99338910
aI98981572
aI316886219
aI68734752
aI14154059
aI280517180
aI306372952
aI1255051
aI321422949
aI321405931
aI315130266
aI14051471
aI102815403
aI264526209
aI51233132
aI167313283
aI80869977
aI29676353
aI169504097
aI73945445
aI22335103
aI70942293
aI19923282
aI10470462
aI14066952
aI254957673
aI320537653
aI317324583
aI43850076
aI58382241
aI314236289
aI48515482
aI320326935
aI155150301
aI14299308
aI16168179
aI39912349
aI28911275
aI126720649
aI319844743
aI66064786
aI53190742
aI303351684
aI236942094
aI19227162
aI16156671
aI289154836
aI319075609
aI40115625
aI241954121
aI22028833
aI34255829
aI31860617
aI256533442
aI218033018
aI112264802
aI10165342
aI165862021
aI152962898
aI192840796
aI14249753
aI318306262
aI59727838
aI178454794
aI17684621
aI14384341
aI150256163
aI318031020
aI15341281
aI23144737
aI28408985
aI31375898
aI280937870
aI162033214
aI19816313
aI19017836
aI304502051
aI43326073
aI211650551
aI317175652
aI317332353
aI20787623
aI317250817
aI7118662
aI312699023
aI252992049
aI18409071
aI130603477
aI33265709
aI153486297
aI14164195
aI16742393
aI252971920
aI20543968
aI24262465
aI197407614
aI75859323
aI14566902
aI30958728
aI14057878
aI91602700
aI186550761
aI116721194
aI35717225
aI16979997
aI12083242
aI19600225
aI127894566
aI310855234
aI107009793
aI72788199
aI14491371
aI17959467
aI17475095
aI64719525
aI315972695
aI18717097
aI89580184
aI14639551
aI18460596
aI314781793
aI235292654
aI291771682
aI14453352
aI315499870
aI101729935
aI13622762
aI33007540
aI315243126
aI186050204
aI155611478
aI18571680
aI21801907
aI296213587
aI754559
aI269395266
aI80833161
aI25337019
aI64293237
aI15016666
aI33357016
aI86014348
aI314473319
aI16230007
aI16712734
aI267422218
aI199715100
aI266224010
aI308542747
aI303748823
aI276963699
aI203925228
aI109897609
aI13372502
aI313654766
aI313530211
aI313288572
aI290221430
aI249286819
aI57189001
aI304498235
aI313381624
aI250989360
aI9325772
aI23917362
aI8975422
aI309555899
aI63483687
aI291832402
aI77645080
aI29058763
aI30329322
aI112991295
aI70269268
aI98489205
aI154474542
aI7504512
aI312806592
aI146258940
aI39224862
aI286972898
aI312594037
aI24905711
aI68332863
aI302442051
aI312078451
aI297402128
aI312425133
aI10777962
aI82078119
aI259359309
aI12847162
aI93020906
aI119661028
aI58158766
aI147213259
aI23306500
aI251622777
aI279924869
aI29622700
aI162677887
aI219746580
aI237007999
aI17775793
aI94298379
aI14428152
aI102885186
aI29395574
aI128366576
aI153563368
aI124184046
aI26777952
aI127773414
aI8104912
aI141985594
aI14853615
aI110934646
aI282588062
aI25290482
aI63710823
aI33213470
aI305843788
aI126893495
aI18973760
aI17975327
aI310310768
aI305999171
aI8568612
aI137585870
aI2328911
aI308592955
aI214147127
aI14927974
aI261044948
aI31100946
aI20349106
aI293221355
aI12725862
aI175822890
aI5962972
aI281097895
aI310343472
aI308432423
aI28640235
aI239963429
aI285217658
aI307810027
aI20068846
aI19575884
aI16293511
aI249351969
aI202286742
aI52742335
aI258869195
aI267220324
aI45394577
aI237286870
aI301556159
aI126401772
aI81330691
aI112296599
aI257348982
aI91457358
aI15312867
aI308081840
aI14462571
aI182711109
aI63745717
aI17863827
aI104457660
aI132235218
aI16632262
aI15020422
aI75321482
aI286190564
aI17092656
aI96141491
aI295223083
aI9741842
aI249691619
aI14728352
aI17904507
aI253988342
aI47900226
aI308983833
aI129485115
aI284600963
aI213808328
aI45091022
aI15446324
aI17936604
aI265522278
aI9849032
aI31044484
aI45043802
aI38983823
aI14594698
aI75950475
aI164671611
aI308378928
aI127846896
aI76731462
aI273992943
aI23111951
aI219114998
aI15256772
aI19590608
aI211182027
aI14403902
aI99108914
aI14100676
aI280470734
aI296965311
aI61130533
aI222052148
aI23630318
aI128333192
aI302030355
aI31378386
aI294522082
aI201677838
aI48645032
aI54345999
aI37853673
aI158533495
aI16818145
aI16240125
aI59575524
aI4550841
aI307595028
aI297137315
aI14559882
aI304888953
aI258572296
aI96599552
aI134109834
aI14664223
aI17460942
aI306967789
aI22735257
aI269381220
aI195998422
aI194486289
aI265364810
aI50947605
aI240765042
aI49638890
aI302911305
aI14251890
aI16545746
aI286308923
aI16205293
aI17772404
aI141321223
aI293981126
aI14388555
aI305888992
aI51678226
aI44586217
aI21245893
aI16787427
aI305515226
aI281871260
aI167927844
aI299989259
aI15861784
aI215648353
aI19760711
aI107383787
aI22890943
aI14875983
aI27845025
aI286410945
aI15006406
aI16314463
aI235540000
aI16778325
aI304949898
aI195145965
aI16503454
aI90922406
aI11282
aI304831466
aI43782997
aI267957392
aI193036379
aI304688886
aI50511177
aI303788601
aI304655677
aI14229864
aI122756401
aI121557531
aI32811244
aI260154851
aI79221799
aI304550552
aI291491939
aI153538813
aI20359522
aI230543424
aI30004873
aI20866261
aI65030867
aI196665568
aI238914225
aI304405949
aI304349898
aI15047769
aI75729980
aI24002454
aI16241143
aI34982561
aI17455300
aI290997594
aI15146967
aI41322989
aI19241671
aI69873449
aI53544951
aI90265841
aI229930181
aI304008606
aI297540199
aI21555070
aI14270575
aI269971745
aI303754335
aI198908475
aI93738787
aI17127728
aI5527612
aI303602971
aI37758169
aI260086044
aI22308247
aI34176571
aI150085357
aI18115983
aI33552953
aI251640355
aI12962152
aI143575511
aI117173302
aI15052417
aI279718299
aI25502245
aI270131309
aI18127688
aI15503194
aI286587553
aI28513412
aI67865566
aI21624462
aI254133594
aI41040292
aI161547617
aI63311977
aI16801457
aI119274292
aI165828206
aI58867678
aI120137758
aI52831516
aI14790314
aI162073222
aI16059476
aI141998510
aI288578498
aI265038452
aI6658422
aI302417621
aI15519011
aI14670713
aI20435404
aI14122279
aI16689920
aI16663249
aI50614203
aI297727732
aI78834227
aI76808454
aI21963768
aI189971029
aI151869504
aI233287992
aI809493
aI15064903
aI15161682
aI268020193
aI216783002
aI10716292
aI24732193
aI20445845
aI223955403
aI276642256
aI154460093
aI42872636
aI12224
aI185898499
aI16409482
aI53780161
aI22238436
aI127716623
aI297626682
aI300203433
aI8242322
aI29963789
aI215999305
aI292423542
aI201439041
aI73505734
aI48005782
aI199619720
aI245353609
aI15338467
aI72350144
aI349963
aI297891750
aI203893013
aI18646394
aI22245078
aI283937938
aI264283854
aI300685209
aI21852343
aI48925031
aI147770528
aI51099056
aI256487509
aI234699951
aI14114893
aI40734058
aI18081814
aI67100074
aI15833187
aI61935697
aI222736588
aI14856056
aI15236976
aI94439278
aI74527464
aI300143092
aI15366666
aI260298074
aI200828920
aI25823239
aI297393711
aI6254542
aI11320442
aI21189319
aI123215754
aI794288
aI298475552
aI19515931
aI297924616
aI52377144
aI104275443
aI113585806
aI48646061
aI263617970
aI299217061
aI42266082
aI225337782
aI19444484
aI78812659
aI39930017
aI25546166
aI19685572
aI158879668
aI196927205
aI9112512
aI14327291
aI50362210
aI15818165
aI121401342
aI92246817
aI111200621
aI18041296
aI33584412
aI100625722
aI298127173
aI206470646
aI161057425
aI65738205
aI297065505
aI1188181
aI14663142
aI90385834
aI16629055
aI274488646
aI115367691
aI186630298
aI143123611
aI244871532
aI120156462
aI297480671
aI191846019
aI20951859
aI198495320
aI113639264
aI15506652
aI258191926
aI296751219
aI295195521
aI95270422
aI8358492
aI76419156
aI283503933
aI15485269
aI12914612
aI249735799
aI123917119
aI27468000
aI14784349
aI229329522
aI275506087
aI36595618
aI87609191
aI60925309
aI1266911
aI246412433
aI154226398
aI277353144
aI108617197
aI28530213
aI23866314
aI111223834
aI246144124
aI83830618
aI155017927
aI155855754
aI235715051
aI287993726
aI292029127
aI21757950
aI198832865
aI292921436
aI58807457
aI198823966
aI200074971
aI198800280
aI198832563
aI198835856
aI185407242
aI28104915
aI89219260
aI188400011
aI178248818
aI46088331
aI294763710
aI286223704
aI15445531
aI152966377
aI291646476
aI86293529
aI295283103
aI287743596
aI274089703
aI23637383
aI282414659
aI106940116
aI9405042
aI32829144
aI295297999
aI265183458
aI284593852
aI47139968
aI294881229
aI295087305
aI14300097
aI288717812
aI294810647
aI291109496
aI72724741
aI267961496
aI16622560
aI292860662
aI191458646
aI276122273
aI45372729
aI201676763
aI17001342
aI294407805
aI104447393
aI155771048
aI256305287
aI294218521
aI66705231
aI293848780
aI119006231
aI14963096
aI218090984
aI288916109
aI29934253
aI243727384
aI8687702
aI25552537
aI188853863
aI18697451
aI32150482
aI51578532
aI147386588
aI32809719
aI17594276
aI264115538
aI20223128
aI19059462
aI186699957
aI293160698
aI255986786
aI16071952
aI27718037
aI292765045
aI23030281
aI101734069
aI67032083
aI172363448
aI16201019
aI115068072
aI23640904
aI171764557
aI76085137
aI17581974
aI58768691
aI15321444
aI272082080
aI169860894
aI5871082
aI106676647
aI65539931
aI258090181
aI33677567
aI81855775
aI166015561
aI59363362
aI291407391
aI291775824
aI17064939
aI15416112
aI256882464
aI87504411
aI102417401
aI19142695
aI285136539
aI46637693
aI18719676
aI16807860
aI173657920
aI16818951
aI80339047
aI291128087
aI259438768
aI197207556
aI275414658
aI44958434
aI72593986
aI18450544
aI74252039
aI280331195
aI280023895
aI290534153
aI290449286
aI4416461
aI133469699
aI279118291
aI179906511
aI59763
aI19976838
aI18230253
aI99633098
aI16528187
aI67395222
aI128094257
aI199407467
aI24069181
aI105275074
aI174041309
aI195649947
aI12408782
aI9001662
aI267294563
aI22154930
aI288933814
aI25724826
aI96171488
aI137016991
aI44196291
aI288153088
aI175899052
aI250516792
aI21848140
aI257144031
aI286436926
aI16991756
aI288476451
aI44370361
aI288375375
aI211223932
aI288272839
aI22639161
aI125534079
aI288240889
aI14612031
aI24627107
aI219710667
aI288129945
aI63081581
aI287988994
aI44550481
aI206125454
aI282833590
aI18285000
aI181282361
aI65080914
aI8524772
aI15191864
aI241072568
aI32883980
aI219628358
aI31229135
aI287485202
aI89560395
aI285176212
aI16269450
aI219181854
aI93960358
aI233865785
aI286791211
aI8709032
aI82387789
aI2607551
aI68744415
aI17337356
aI256147019
aI10414152
aI40427458
aI100868121
aI286295662
aI17768528
aI199412260
aI236110187
aI34582828
aI58631564
aI141382071
aI6745042
aI15091220
aI285479484
aI73009372
aI25158899
aI14456253
aI168453874
aI285229677
aI83729912
aI38879191
aI19299476
aI123276530
aI135144079
aI39524733
aI7598342
aI284710235
aI166018427
aI40872127
aI273970253
aI284515899
aI273523867
aI25662840
aI278290569
aI261250019
aI191534242
aI201438791
aI38150886
aI48721054
aI69855905
aI61302204
aI229384438
aI14435385
aI145989473
aI262592492
aI127014958
aI40914048
aI18937006
aI21045992
aI141867799
aI16836914
aI283689923
aI25264183
aI41987403
aI14834017
aI124885395
aI33547550
aI191013707
aI269992613
aI19874892
aI21726040
aI21516857
aI274250343
aI18563466
aI102278432
aI100976993
aI7782612
aI14528375
aI9379732
aI98014004
aI282764541
aI267406314
aI3909541
aI78429421
aI8390102
aI13810582
aI38220138
aI231123232
aI45608788
aI19526022
aI1079071
aI62414811
aI169110496
aI228799294
aI98465618
aI281629720
aI234087917
aI15703011
aI18923114
aI262338851
aI14443226
aI184779225
aI16993322
aI276337255
aI15842459
aI15439907
aI242124855
aI15367458
aI259219342
aI40275331
aI113015388
aI235110295
aI271128091
aI16344690
aI27247069
aI281393155
aI47570649
aI154287529
aI261363584
aI25743147
aI125966765
aI22940564
aI260584776
aI259882134
aI14281628
aI30679257
aI29558949
aI813889
aI16947461
aI17870054
aI49682598
aI13830052
aI34199199
aI271494909
aI15763457
aI10421142
aI9430142
aI271556393
aI21206497
aI187043840
aI4157611
aI184002696
aI48226686
aI14905970
aI184821489
aI280605599
aI19564839
aI147155711
aI16905293
aI28218116
aI280434660
aI48648390
aI90619120
aI134805674
aI59153101
aI103758376
aI24836414
aI66495062
aI23457581
aI254238317
aI9876672
aI14059224
aI143809959
aI24346308
aI15351100
aI108144748
aI279857628
aI17463
aI201161763
aI17442726
aI12164502
aI279449608
aI166382951
aI81138183
aI26468518
aI45529639
aI14315146
aI50262847
aI40687626
aI14710251
aI15423951
aI18907850
aI189258055
aI36885647
aI263016303
aI279153185
aI96035080
aI94794804
aI123656359
aI14480395
aI126576544
aI15403260
aI4673271
aI278165349
aI51230449
aI270904462
aI224181761
aI59070343
aI234525816
aI101212152
aI30695690
aI278389398
aI213851821
aI20272317
aI278278142
aI128288614
aI161691702
aI247227980
aI20207933
aI278041700
aI22521179
aI278097508
aI47387396
aI17560989
aI57344178
aI277979096
aI64276048
aI11801622
aI34797893
aI5362602
aI133936078
aI173049140
aI267367947
aI52109446
aI158473498
aI269903179
aI28145384
aI184943160
aI37130754
aI7488812
aI20541697
aI85779371
aI136677494
aI74488770
aI198667972
aI95511903
aI137453155
aI77120546
aI275076466
aI269997411
aI111933590
aI725323
aI149818246
aI228442185
aI15701597
aI21719318
aI10226232
aI118857058
aI276244756
aI44404329
aI268592879
aI18225384
aI18679225
aI270546628
aI268132902
aI276331001
aI67476592
aI248609908
aI276177060
aI52737068
aI273452636
aI16430004
aI275010322
aI6849702
aI260544425
aI104731421
aI59979291
aI32436837
aI262993658
aI272082898
aI65884301
aI175262826
aI263358708
aI249569414
aI15267655
aI246073333
aI13931802
aI243672436
aI24083010
aI274954192
aI26708042
aI102954089
aI219090313
aI144627696
aI19407854
aI212623869
aI16154948
aI274619490
aI243328891
aI235821180
aI102499699
aI42482558
aI40775615
aI18135941
aI33866823
aI58223889
aI239508960
aI21818964
aI265492151
aI11851022
aI53193035
aI13495
aI18103643
aI268915384
aI19545260
aI41814740
aI203822182
aI97199686
aI16448704
aI260896886
aI46072736
aI17168191
aI207595367
aI48251605
aI11755632
aI226784679
aI79174501
aI228802863
aI17380207
aI189416211
aI65692721
aI259401377
aI115767862
aI4944701
aI201230220
aI272606915
aI273336664
aI111333494
aI90048502
aI273158077
aI180887165
aI37141924
aI49162178
aI84915291
aI69227635
aI272018317
aI40429951
aI262041249
aI19852424
aI22369800
aI15912291
aI161988970
aI15184365
aI39568326
aI256614549
aI14390050
aI272364389
aI30430394
aI18015712
aI268533750
aI70747148
aI20159497
aI97580824
aI96435499
aI171671077
aI23025717
aI124650736
aI20231878
aI50995744
aI17524032
aI184474367
aI15147286
aI262323671
aI159421322
aI222284135
aI118655853
aI20225656
aI268978588
aI156297711
aI258657116
aI271609850
aI271502397
aI81618211
aI191452859
aI201220394
aI19681818
aI242486086
aI108856878
aI15263192
aI16361799
aI236582709
aI35783898
aI34128592
aI38524520
aI107029796
aI83913303
aI54138210
aI263889270
aI243376044
aI126857029
aI16390940
aI265692866
aI4187081
aI258909057
aI271074341
aI271042134
aI101248390
aI195481570
aI45424471
aI270954597
aI270051108
aI258874131
aI51538901
aI270928236
aI270750561
aI17208227
aI219008364
aI198448344
aI261747177
aI14998010
aI62890739
aI14183853
aI220962383
aI198202121
aI14576567
aI69268106
aI252105891
aI19868598
aI33688359
aI269862703
aI28554232
aI260732701
aI115958098
aI71128009
aI81491563
aI16097049
aI44352027
aI17034624
aI19294026
aI20312006
aI17531188
aI246490565
aI158618726
aI17159650
aI244281058
aI269947725
aI197838706
aI72786736
aI16906137
aI26570489
aI269885853
aI14550744
aI21305080
aI131808149
aI5511302
aI269705482
aI202984866
aI151949951
aI120941520
aI208781945
aI241506868
aI238848438
aI7035532
aI90905181
aI138228389
aI32381018
aI171440665
aI17396170
aI18295563
aI1810701
aI130321526
aI248337991
aI17099689
aI267678428
aI268626293
aI15350228
aI69932023
aI119010814
aI14622472
aI15247958
aI197635297
aI11845652
aI199647571
aI14051156
aI23087133
aI17065714
aI263130510
aI78583162
aI19983937
aI152599813
aI10747642
aI28350681
aI21899535
aI159125039
aI90425387
aI263725666
aI30632844
aI17934118
aI115550495
aI180714857
aI20826068
aI139984101
aI242228714
aI233118689
aI234893595
aI40470255
aI18340341
aI12576412
aI226561083
aI153097903
aI21350969
aI42209558
aI52184782
aI261149503
aI265808052
aI106347981
aI95049944
aI9980812
aI15296576
aI259169773
aI263366092
aI159286210
aI192708356
aI48977537
aI125108690
aI149809222
aI252687673
aI67405637
aI19761778
aI37405372
aI60950997
aI61850547
aI68848910
aI32666348
aI25289795
aI214149829
aI95575650
aI135281075
aI225996982
aI118861651
aI14238738
aI233232425
aI98077199
aI220508526
aI265556324
aI23436597
aI32532488
aI120730862
aI76814865
aI196567931
aI66953438
aI88799262
aI43064062
aI223798274
aI255787354
aI9095
aI21652797
aI22405155
aI18752512
aI14244103
aI20813
aI252780507
aI14111300
aI139968026
aI25960136
aI219304688
aI60620900
aI45184223
aI10552772
aI142215088
aI161965514
aI6266412
aI153207829
aI40290010
aI255243124
aI18998756
aI263834932
aI254409295
aI260418577
aI140074788
aI190491310
aI250553065
aI261232181
aI260187861
aI116006242
aI262178982
aI13637662
aI21276633
aI154587106
aI170478235
aI245863745
aI16197867
aI56293277
aI242895514
aI68743269
aI197472992
aI91497792
aI132638474
aI84555269
aI260724250
aI79843573
aI262849354
aI47612321
aI55747112
aI34325728
aI5740792
aI12116992
aI257573816
aI28048757
aI247427391
aI102347845
aI245732110
aI191865978
aI56335976
aI126425000
aI249078368
aI35718519
aI16736398
aI18686296
aI141885805
aI182686614
aI32591633
aI89508899
aI9844172
aI14392797
aI198177797
aI260826460
aI27829024
aI16329318
aI18592399
aI237779760
aI23989269
aI40051164
aI72833470
aI20332590
aI125444249
aI94407890
aI21129375
aI37639450
aI123863978
aI261673139
aI199425248
aI157009127
aI261275405
aI18802837
aI49603554
aI23171498
aI191269764
aI95882142
aI24414869
aI142883417
aI255490615
aI17769199
aI187203739
aI14300905
aI15404704
aI54120783
aI177490132
aI249047929
aI53285506
aI80058215
aI238796888
aI19294780
aI178089640
aI230581364
aI131411068
aI121366287
aI9461282
aI20661047
aI110348556
aI65158631
aI221444235
aI20389541
aI11462232
aI22343804
aI19866053
aI97783657
aI19825495
aI1919921
aI233310497
aI80135192
aI250073721
aI25466258
aI51692882
aI112914161
aI17421107
aI249849807
aI233197902
aI79271771
aI8502942
aI7964842
aI47432214
aI20270846
aI19413898
aI14961711
aI17126030
aI65768251
aI11533
aI245539524
aI16885689
aI44262513
aI17941728
aI33896564
aI50104303
aI203000902
aI9205202
aI22552031
aI23616124
aI176135823
aI242061612
aI24096463
aI20690068
aI61905371
aI8171882
aI236958804
aI62639471
aI121906929
aI18976044
aI61700873
aI43112531
aI251792770
aI18597337
aI15025490
aI70546566
aI133115539
aI27394632
aI82021611
aI101893494
aI237955461
aI49073762
aI255946577
aI19912945
aI129893814
aI257547426
aI197420411
aI246612581
aI226686350
aI194569720
aI65240253
aI257104485
aI15414807
aI238173939
aI34870410
aI25345611
aI6883122
aI6721902
aI89920195
aI33933259
aI257509897
aI19361444
aI67642969
aI95958193
aI638183
aI255503587
aI160823316
aI40040591
aI256064436
aI804376
aI121434761
aI5741172
aI256380322
aI29647488
aI251701043
aI47438273
aI33884363
aI224996466
aI245122524
aI747493
aI55343681
aI73005882
aI238294154
aI254794720
aI193558656
aI234644016
aI240863616
aI15598627
aI22842372
aI54517886
aI58738573
aI6034312
aI108287604
aI10048462
aI15634195
aI228449937
aI253002300
aI229384911
aI156774371
aI14240550
aI54094893
aI254465074
aI256140397
aI81391087
aI233325683
aI33162435
aI25340811
aI15772353
aI242903882
aI136300496
aI10145652
aI18887628
aI43563702
aI255371041
aI19937781
aI227891617
aI140890403
aI29700681
aI30865801
aI195146667
aI43838044
aI14641711
aI14465184
aI193389961
aI9642492
aI99641121
aI9595202
aI189720379
aI117309416
aI242396886
aI188783547
aI19947995
aI1031461
aI210507996
aI171587024
aI173882759
aI15150822
aI254859436
aI16428708
aI19109792
aI152537901
aI19176749
aI89346977
aI197283554
aI65509281
aI8458822
aI7309382
aI1874321
aI15046342
aI22893552
aI6877642
aI254332734
aI250051004
aI246708235
aI10363742
aI101793494
aI40452175
aI253560798
aI237801310
aI22021397
aI105132431
aI241032363
aI12658262
aI85952123
aI247089259
aI36524358
aI132191101
aI246407850
aI21695613
aI110639548
aI223906945
aI90882840
aI95291178
aI35235616
aI253097528
aI17870518
aI244549484
aI80884975
aI37498660
aI41171069
aI21907775
aI17312096
aI83835809
aI16186275
aI921471
aI28234634
aI30000385
aI20694999
aI26199454
aI223858435
aI16132791
aI2975291
aI249342562
aI16614462
aI251989589
aI44077885
aI25482789
aI145844734
aI234401654
aI25503
aI87423646
aI110815304
aI32145668
aI251282444
aI7577572
aI18001769
aI81111372
aI249483845
aI122667060
aI28637555
aI45534782
aI190635205
aI17181496
aI14997340
aI41796136
aI26180247
aI22560119
aI23207235
aI19432750
aI245958090
aI18078544
aI15318615
aI94111457
aI179301919
aI237811430
aI120098952
aI56060757
aI29187075
aI70871704
aI222433535
aI116069021
aI17606833
aI16290466
aI250231226
aI131610300
aI245353850
aI244158443
aI40617165
aI18806569
aI75409819
aI42986591
aI9323742
aI193039297
aI11953392
aI43906821
aI147165642
aI6994702
aI16615402
aI74839213
aI248303762
aI249387735
aI121351453
aI5893652
aI17201759
aI14272639
aI128609758
aI233652750
aI15397871
aI75110396
aI37010284
aI158862922
aI216706174
aI7100562
aI22152525
aI33486398
aI69551745
aI16447151
aI245336324
aI47639236
aI222745079
aI20656881
aI190344721
aI54417528
aI22559635
aI9652612
aI147714417
aI118359242
aI155822225
aI18915597
aI20381946
aI22907952
aI181341385
aI248546341
aI9515072
aI237034824
aI21560702
aI50541105
aI37676258
aI21433653
aI237754475
aI240815049
aI28551844
aI171232089
aI165388002
aI35081765
aI17674253
aI239883843
aI17366861
aI20337891
aI30915931
aI21830036
aI172018816
aI131172390
aI17632102
aI17623957
aI187962875
aI54074004
aI201013800
aI66045876
aI223825754
aI81536772
aI134985802
aI22551252
aI19153669
aI247094635
aI26532513
aI76863177
aI15444290
aI247337558
aI14969106
aI24406185
aI19335269
aI128616566
aI102919570
aI25647169
aI58720604
aI31499727
aI225731692
aI10106892
aI245997868
aI222506070
aI70911045
aI240645964
aI190220715
aI75251608
aI52826043
aI39238227
aI23677076
aI234507637
aI14125675
aI6132
aI164480701
aI213699628
aI16814536
aI45177109
aI89590464
aI7586692
aI48096388
aI52393260
aI156061718
aI1225851
aI19264632
aI84825820
aI14068477
aI99738021
aI246046735
aI132294965
aI35030686
aI10752242
aI16038866
aI14786193
aI15487574
aI41861588
aI50100869
aI133915526
aI17631758
aI39830977
aI136924845
aI198882491
aI56171636
aI28355414
aI13246802
aI245295262
aI53476393
aI14292282
aI244071513
aI210404762
aI145358763
aI20761360
aI15915525
aI216228988
aI244897223
aI218176021
aI28433267
aI6736962
aI51860788
aI142240974
aI50123233
aI237953157
aI238714992
aI244576097
aI40840336
aI184944513
aI15352686
aI245355231
aI14704524
aI74458232
aI10336842
aI75945637
aI47496051
aI35416613
aI17406518
aI27641459
aI242490547
aI46673034
aI141527434
aI245023099
aI2000661
aI152774498
aI60671919
aI17273504
aI49257732
aI18803876
aI244569815
aI243995179
aI47950859
aI8412062
aI17934639
aI244229060
aI243301110
aI85058857
aI59485481
aI83183356
aI92240363
aI16681704
aI14465889
aI15441263
aI19420634
aI60283203
aI244245542
aI1270541
aI6156042
aI17481654
aI15320031
aI243612591
aI174334389
aI188911433
aI76699639
aI228948336
aI17303085
aI142212378
aI21117691
aI41600685
aI85778687
aI54587658
aI224471170
aI19793910
aI24154006
aI51203411
aI77731395
aI50292651
aI187296059
aI3034651
aI74926877
aI230927086
aI179651009
aI20758735
aI219894698
aI22348830
aI243380333
aI65151171
aI18683861
aI86286424
aI243256942
aI55019851
aI243202219
aI19552014
aI90356358
aI54546315
aI9019032
aI239863111
aI242963245
aI242904917
aI216789538
aI18330198
aI217255655
aI110200807
aI210958796
aI124276879
aI20825142
aI156261478
aI19130790
aI189975386
aI22707350
aI108982482
aI22291981
aI609513
aI14857897
aI53710146
aI64408783
aI38513427
aI1294621
aI97272363
aI5110671
aI215935876
aI17260083
aI10148132
aI60474269
aI15931022
aI741803
aI9234962
aI30338122
aI92563674
aI103917660
aI179169814
aI14827633
aI17558721
aI29674668
aI35046507
aI60790131
aI18168670
aI14183884
aI43648402
aI45328934
aI15489945
aI240508799
aI136719326
aI239329307
aI15035444
aI181610184
aI28957745
aI187418790
aI231123237
aI112595708
aI137862179
aI185370456
aI143739132
aI170286607
aI15839837
aI14613124
aI65355534
aI199679969
aI10504102
aI225744877
aI225890575
aI69913775
aI17602294
aI14264305
aI240817573
aI15275250
aI136415484
aI11071752
aI7385202
aI19578301
aI234940686
aI49502347
aI229458361
aI39327042
aI3700181
aI16233090
aI29665970
aI27238310
aI14310121
aI35195086
aI21156565
aI54158827
aI49739092
aI15828646
aI223696905
aI171947193
aI15455426
aI181194005
aI14344048
aI84451247
aI85801717
aI216514526
aI85882613
aI94238777
aI11492212
aI17213378
aI15914243
aI65514960
aI45208102
aI16229495
aI95459292
aI42129234
aI110402218
aI236768464
aI16752677
aI18489268
aI118970901
aI2478871
aI2255731
aI8192862
aI110817977
aI18632229
aI1021191
aI71575794
aI146162579
aI225030829
aI239194183
aI16310837
aI19335545
aI14568274
aI93324122
aI15472693
aI238396331
aI16822911
aI76561795
aI238775170
aI22437228
aI95878193
aI6034992
aI233922443
aI176399239
aI17623360
aI23972128
aI62463138
aI121191113
aI134874463
aI27626183
aI113592586
aI38518374
aI113251396
aI30789194
aI19189732
aI109144482
aI44767570
aI12968442
aI229908989
aI16908108
aI10366482
aI125948345
aI34918622
aI15620925
aI16296637
aI118618452
aI53350554
aI217845963
aI53961906
aI1314141
aI25123819
aI63402836
aI5860902
aI14001312
aI237196753
aI11963282
aI95993620
aI162097384
aI78126777
aI108410942
aI153382196
aI15038483
aI789296
aI123984365
aI40852910
aI32994834
aI31312688
aI52352965
aI235272923
aI225414578
aI55246787
aI130859140
aI13869522
aI211535280
aI52059265
aI20780874
aI227263552
aI9055772
aI19111917
aI120554817
aI13755592
aI16911255
aI6442042
aI6559052
aI9070742
aI32352982
aI17881832
aI196997025
aI7081112
aI15874571
aI235648204
aI50868479
aI194601803
aI235096038
aI142317296
aI38505639
aI24353445
aI38663146
aI72814308
aI73866705
aI94861671
aI9070372
aI97262356
aI80834663
aI15816779
aI132424015
aI235266557
aI6779852
aI10536822
aI235147435
aI74189775
aI2955691
aI20156083
aI60014176
aI56980463
aI85587918
aI22386685
aI17463153
aI9091642
aI201007121
aI232322876
aI50338989
aI171988862
aI1050111
aI14059524
aI2010181
aI22388240
aI102420965
aI46396030
aI28204921
aI21112946
aI19002348
aI16111647
aI102585802
aI230487232
aI9520342
aI79603514
aI230282709
aI86715578
aI63170611
aI6649322
aI234092375
aI90059772
aI9119892
aI15833426
aI20779138
aI29933637
aI12265172
aI214906586
aI29762189
aI29800229
aI93552719
aI10574642
aI11601732
aI16469080
aI110226177
aI5467962
aI20992750
aI130064294
aI636833
aI17197005
aI52641538
aI11094912
aI215371977
aI136861797
aI233477550
aI14295456
aI12472
aI181094549
aI25919893
aI117530426
aI17867668
aI35286689
aI16960904
aI18687998
aI16100100
aI35282285
aI7100602
aI809524
aI15769239
aI228689692
aI20745950
aI15565250
aI30916850
aI55677993
aI232608624
aI82047362
aI14493688
aI30095723
aI28307736
aI682183
aI3865131
aI28140708
aI74350701
aI199634117
aI89212604
aI77742695
aI149799145
aI49325087
aI55747101
aI19777931
aI77959983
aI21997158
aI144868175
aI14121456
aI130116239
aI30843691
aI68210488
aI15814230
aI48202767
aI188158671
aI14437561
aI7937582
aI15346789
aI819580
aI45903117
aI16663806
aI46319704
aI6345462
aI197284748
aI17259318
aI187598138
aI21326120
aI83153348
aI222168968
aI15217946
aI125141524
aI74603
aI167172720
aI104981609
aI28158963
aI21844786
aI8979142
aI72865392
aI155308265
aI15871220
aI21042090
aI11487722
aI38375816
aI24533390
aI221293817
aI11054232
aI19458431
aI31444322
aI37362621
aI52417620
aI78379372
aI182080874
aI26269719
aI18638602
aI59374512
aI12732972
aI39832841
aI20627707
aI71830465
aI15052090
aI1387951
aI41837082
aI14601165
aI14577765
aI190562835
aI40857078
aI14561490
aI43943881
aI15219932
aI16109803
aI17526613
aI43129746
aI24345286
aI33426234
aI11178902
aI166067884
aI88506852
aI20685995
aI17102707
aI30517786
aI18160074
aI17222692
aI107475190
aI12740
aI18876154
aI26621183
aI44344561
aI17289182
aI19086480
aI91876463
aI13198432
aI14852683
aI26436996
aI24699312
aI53675209
aI16531464
aI26567636
aI175017654
aI754604
aI72680035
aI34969307
aI55073
aI20487008
aI131884821
aI52524502
aI19463730
aI192498474
aI45711257
aI20505934
aI30190793
aI29754327
aI23023266
aI11583782
aI30923551
aI18077765
aI42607040
aI195223079
aI15278768
aI229421787
aI10400822
aI157845438
aI83213648
aI92481250
aI21252140
aI9970382
aI58535604
aI22688216
aI176139321
aI39712118
aI15048445
aI19842220
aI24036961
aI226683418
aI181223187
aI229066275
aI82342521
aI83249427
aI17383226
aI24857371
aI227043813
aI226430529
aI219878660
aI78024024
aI111720910
aI18944490
aI18222707
aI213011079
aI101795575
aI14116337
aI73616146
aI224519941
aI65960159
aI7278032
aI14717846
aI126948948
aI228324778
aI144608999
aI8651092
aI19354337
aI8089762
aI92558807
aI66277191
aI14778448
aI24212314
aI100853263
aI185508695
aI57241082
aI17210575
aI226332893
aI47031454
aI15173092
aI172063289
aI74974949
aI114726935
aI89568423
aI203936144
aI4913671
aI221309685
aI14478305
aI4625811
aI215287388
aI80095884
aI217151608
aI145081016
aI145915849
aI22866628
aI158281511
aI7926102
aI43697336
aI211568299
aI174588402
aI80068505
aI26300841
aI226329193
aI17886409
aI226275676
aI141215345
aI30266022
aI17774342
aI224414007
aI55198653
aI126117770
aI38704069
aI796553
aI163096730
aI19912971
aI16946315
aI225390424
aI57575052
aI9952152
aI27676115
aI31625417
aI15388988
aI18021601
aI215362847
aI7864422
aI110400629
aI17453969
aI31709988
aI21741298
aI77720373
aI7381872
aI16164628
aI15352647
aI5709712
aI35096501
aI35433804
aI15090415
aI220554194
aI63850630
aI214226546
aI15592004
aI7525062
aI24029138
aI143772190
aI18073257
aI15299664
aI224492343
aI6780352
aI146310940
aI41856789
aI116781422
aI15558680
aI59107849
aI59029308
aI782612
aI18682419
aI10474552
aI14616264
aI20905788
aI61176208
aI224235676
aI1334791
aI107544880
aI210023498
aI224101935
aI217186973
aI224025879
aI17017648
aI213327806
aI58632478
aI208169663
aI223706262
aI187497999
aI59182067
aI18473147
aI87068918
aI18625875
aI52248086
aI15772948
aI20793650
aI186402054
aI29151277
aI104264512
aI48462174
aI22107142
aI206638179
aI17600324
aI15299279
aI96688385
aI21230269
aI47297801
aI222576861
aI608853
aI20076516
aI94309298
aI65142791
aI128015746
aI222099652
aI42387793
aI20672921
aI194121143
aI28673422
aI33882060
aI16329057
aI168213699
aI65778799
aI103254443
aI6677752
aI195048053
aI161024478
aI14347634
aI25696968
aI45795718
aI15202525
aI32313
aI18838389
aI27986259
aI59028703
aI211752681
aI15200378
aI22001687
aI17451614
aI30016358
aI20600212
aI57615294
aI17197547
aI102118191
aI15806207
aI213990216
aI6346122
aI105236854
aI14465280
aI57271393
aI14478136
aI12757222
aI27664273
aI121179058
aI43067634
aI147558812
aI15854316
aI218432820
aI7312502
aI14331965
aI14662922
aI16558456
aI14150396
aI106193491
aI17535107
aI219628086
aI14433500
aI19590392
aI216113407
aI65102404
aI36967017
aI34956852
aI63041440
aI17151777
aI15018765
aI199490094
aI161036982
aI16202241
aI123632287
aI84477930
aI15564680
aI16145458
aI147236083
aI61491430
aI12483772
aI108311631
aI125787534
aI39092021
aI15183686
aI197450751
aI83088759
aI11819202
aI130297407
aI193526265
aI7110762
aI21386804
aI218083367
aI33781568
aI786022
aI27482327
aI19359304
aI28649781
aI22490935
aI56901370
aI17536326
aI84177143
aI27280456
aI211926992
aI217479263
aI14203748
aI180813759
aI205239081
aI44868350
aI14961682
aI11790002
aI125482453
aI8928782
aI21853292
aI217150683
aI10151982
aI19028717
aI25710084
aI205965328
aI174561822
aI214830927
aI37257967
aI207617346
aI81756980
aI196962522
aI32264463
aI61493444
aI50503396
aI18255713
aI11356
aI19664746
aI121094022
aI22230840
aI176626960
aI21238680
aI215937836
aI41391992
aI213842518
aI48690581
aI43878466
aI35943503
aI25660628
aI17167428
aI37187078
aI2457521
aI98368462
aI21009197
aI37569776
aI195211720
aI72971496
aI16215006
aI36772968
aI41798414
aI170235234
aI200808005
aI150306370
aI45797427
aI23268628
aI15059320
aI175531912
aI6727802
aI132978921
aI149933401
aI110383554
aI101049297
aI19747782
aI62486173
aI200570603
aI207133765
aI177507079
aI206153037
aI40170583
aI44112429
aI22466037
aI204403472
aI25075550
aI18731737
aI762207
aI70358438
aI142389870
aI97355269
aI16007948
aI115411805
aI63120474
aI13712162
aI49936898
aI55443462
aI26380447
aI204069223
aI190015509
aI2986
aI15575277
aI35447983
aI42221155
aI14123301
aI167369993
aI15311963
aI13234
aI22199184
aI186916222
aI16466360
aI11821622
aI18337764
aI212238144
aI15127621
aI212978693
aI6150122
aI20929477
aI210996057
aI19164943
aI11694132
aI39384096
aI15823437
aI100917491
aI22604573
aI16024001
aI15357017
aI14283273
aI211859766
aI145776959
aI32313815
aI65634865
aI104176375
aI18306288
aI151403346
aI109243118
aI16856926
aI31890963
aI5104611
aI813453
aI20044495
aI64690124
aI12097852
aI34844455
aI31433550
aI39551086
aI22117639
aI55292712
aI184369183
aI58680793
aI73879780
aI20782454
aI1964791
aI154898112
aI208555286
aI23002051
aI201833063
aI201890090
aI23635593
aI23079874
aI19704580
aI191081902
aI144800349
aI21195485
aI135142252
aI6806592
aI104354476
aI14287132
aI91228542
aI10146892
aI40752679
aI178147204
aI7432602
aI17138096
aI86075970
aI21127931
aI627753
aI209077152
aI210000711
aI14102025
aI23015192
aI208484955
aI41318448
aI14735100
aI14566079
aI206935157
aI15297586
aI49277574
aI90150558
aI20763151
aI19532063
aI198539490
aI27178199
aI19236415
aI94763453
aI19900610
aI187907757
aI35180393
aI16807355
aI164471471
aI93854900
aI27588123
aI61594636
aI110698121
aI205355921
aI116427388
aI78087288
aI157923433
aI3397791
aI19794341
aI142985029
aI14378622
aI18507768
aI207639943
aI92302226
aI30889792
aI114843020
aI10047202
aI116773116
aI84923958
aI48499862
aI18007230
aI54457893
aI207588101
aI81106743
aI186800070
aI207679358
aI175758322
aI195387441
aI16004916
aI206133250
aI26775328
aI150847449
aI161539552
aI186484142
aI135183467
aI44318134
aI17536007
aI15695108
aI35169985
aI25395949
aI191250135
aI13040112
aI27879135
aI13133002
aI190546144
aI14292906
aI107348742
aI19822373
aI18068561
aI15817979
aI63441697
aI103045069
aI14306034
aI29815389
aI57668631
aI44355401
aI28225479
aI50408368
aI7939822
aI15291488
aI8771872
aI17543859
aI96414093
aI205792591
aI75424042
aI18551823
aI3579981
aI115850939
aI115421055
aI5870262
aI19043275
aI193165803
aI15494202
aI17219720
aI178769585
aI17919979
aI6602012
aI14184173
aI14213298
aI40535094
aI37485853
aI49123285
aI161734582
aI173972706
aI21067191
aI77873153
aI15480731
aI201778592
aI204383954
aI71568103
aI19447314
aI204250929
aI26195279
aI14205037
aI204061604
aI90112491
aI58333080
aI36954052
aI91382068
aI196315074
aI52354055
aI15486551
aI34657845
aI20567782
aI194192983
aI137480012
aI174539192
aI10947082
aI193622543
aI158047764
aI8614412
aI9418162
aI98607698
aI174878643
aI82777705
aI212283
aI70352051
aI15940087
aI8708012
aI43094464
aI13129422
aI181672685
aI20264204
aI24555366
aI149955414
aI90774509
aI104783354
aI46134974
aI1477381
aI3597921
aI35639043
aI22259451
aI179144377
aI39966365
aI15458470
aI183248343
aI44283137
aI99261363
aI200402605
aI183544304
aI200293672
aI35323921
aI19463365
aI95891081
aI8900762
aI2335431
aI96405723
aI15880861
aI72384146
aI153799877
aI14585153
aI24927922
aI147615887
aI52551924
aI6959472
aI199259825
aI10580502
aI199205892
aI7873082
aI14575300
aI47942968
aI10841
aI199021108
aI59079563
aI15527090
aI119011755
aI6837342
aI198762773
aI197362083
aI14326070
aI16391746
aI155240092
aI110591133
aI6970972
aI19385312
aI198429575
aI152162155
aI181556617
aI16265259
aI142512496
aI198136122
aI57157064
aI183813
aI16464539
aI8919742
aI61663
aI15845089
aI118955855
aI135608386
aI42073657
aI157302242
aI6039832
aI22749476
aI35894178
aI190503991
aI18528216
aI15473115
aI12374692
aI128952120
aI12187
aI20490783
aI17659060
aI54809441
aI197201737
aI86418411
aI14627453
aI35433402
aI22077157
aI191456078
aI197005873
aI15392976
aI13727
aI14994805
aI3908621
aI40867629
aI136297352
aI185211164
aI9588742
aI8938742
aI128473383
aI27501767
aI9561542
aI20764187
aI40236832
aI190564700
aI196100964
aI14780859
aI157174822
aI140476254
aI18405409
aI35471840
aI27858020
aI76616593
aI17673284
aI28567827
aI18191464
aI54773
aI86778502
aI195526255
aI21603114
aI195349207
aI195377399
aI14117347
aI8993152
aI1260301
aI144558664
aI91476677
aI157074012
aI53359612
aI188245005
aI15143922
aI177683578
aI6164302
aI15780357
aI74917911
aI22768256
aI14531496
aI80602072
aI89169074
aI110347384
aI53155720
aI190819656
aI16910534
aI171037589
aI193929876
aI91632939
aI15937756
aI156711671
aI20443665
aI9577982
aI10876052
aI10205042
aI37697706
aI14127424
aI26572040
aI121096227
aI186002307
aI88581667
aI187895811
aI23440488
aI62219889
aI85656795
aI35491403
aI14286666
aI20935486
aI43070363
aI10999712
aI96700388
aI192533346
aI160946758
aI129338337
aI15160290
aI175646939
aI15315725
aI92342663
aI57698261
aI7949802
aI96550731
aI15982922
aI111645336
aI24508631
aI177911708
aI191553503
aI18862824
aI12024862
aI15442253
aI58487178
aI82898546
aI23600683
aI15224868
aI34573712
aI21615371
aI16529109
aI191301076
aI12363792
aI17035147
aI99432777
aI797944
aI113591776
aI17529207
aI119776662
aI5294122
aI57352821
aI16455831
aI21576815
aI117789713
aI15230610
aI165141936
aI162018111
aI70703459
aI19011114
aI10719412
aI22792977
aI7746072
aI54196588
aI6183492
aI126565514
aI122172879
aI189930516
aI33160229
aI18446440
aI1693381
aI1737061
aI4736071
aI127513192
aI43908355
aI28838410
aI19848777
aI19816740
aI93492210
aI8291642
aI117815242
aI8907072
aI152231835
aI20285388
aI145296659
aI15124038
aI118659941
aI11957372
aI13009382
aI98681867
aI15206226
aI14226963
aI120030927
aI16113471
aI22472874
aI17818632
aI117778128
aI18605783
aI151275711
aI84787835
aI118776163
aI34599989
aI15037487
aI168546657
aI50663385
aI51173108
aI36696863
aI126340591
aI16513692
aI20328996
aI157772708
aI52073594
aI16904097
aI39743739
aI177554294
aI21171581
aI187100899
aI185427846
aI24995684
aI183804671
aI19152127
aI67373001
aI110657849
aI45314136
aI15162878
aI17022048
aI77060872
aI21530027
aI102591203
aI17946558
aI123143711
aI83047883
aI126695109
aI186155673
aI9703402
aI105247122
aI128615858
aI1702341
aI27126465
aI5455652
aI183447205
aI14153755
aI22887121
aI100369418
aI43598085
aI128251234
aI11946982
aI17754586
aI166249022
aI17408979
aI65315130
aI2564841
aI186158105
aI82188583
aI50496655
aI162624400
aI16106839
aI60838201
aI59588043
aI183363106
aI47414069
aI83551684
aI36618809
aI168873896
aI85855393
aI10197
aI11981982
aI146069634
aI108456270
aI39491602
aI121229572
aI42463971
aI14800276
aI108666248
aI15070179
aI48523237
aI120547650
aI16631029
aI156699004
aI7937452
aI22947460
aI33517260
aI15206335
aI6117532
aI17929606
aI165675299
aI180844084
aI180890659
aI21013528
aI86904508
aI25712217
aI117759178
aI923541
aI24451439
aI184004840
aI126192820
aI22307921
aI19850396
aI50101618
aI24492729
aI97555675
aI22802797
aI113240112
aI182995706
aI46840146
aI14343560
aI35244381
aI9845352
aI108431461
aI173141927
aI178766832
aI35155908
aI132224382
aI113706019
aI65635544
aI179476474
aI19877062
aI153779484
aI55191587
aI95384959
aI115185691
aI30122939
aI91025638
aI47207043
aI107136186
aI22271108
aI94080186
aI14612363
aI5482372
aI181763431
aI934991
aI158791087
aI166950267
aI16480748
aI13467472
aI115191881
aI113753091
aI181344408
aI181356278
aI134053892
aI33534875
aI55896427
aI121831396
aI22461446
aI15193433
aI70652143
aI180200441
aI177623160
aI18272884
aI77213053
aI23062653
aI14322017
aI130590504
aI19718829
aI28212245
aI100902872
aI137830126
aI19725414
aI57583383
aI21084806
aI174993481
aI179622719
aI20730642
aI20171519
aI118973749
aI16502560
aI179835031
aI15857116
aI41898721
aI177258525
aI23754892
aI50437049
aI143521916
aI14130294
aI158633985
aI87552283
aI139815560
aI176334649
aI37756965
aI98442446
aI63411412
aI19965996
aI5487122
aI7542602
aI16431383
aI123422315
aI158083412
aI39774962
aI26748527
aI18133713
aI24732586
aI92826809
aI178942697
aI18935651
aI37823
aI84918323
aI126465458
aI80759139
aI35539901
aI17241071
aI155474917
aI177838181
aI8539342
aI176891375
aI17043816
aI17542098
aI14439168
aI30713355
aI163455259
aI176434376
aI169516027
aI16597289
aI37681015
aI6909872
aI27051029
aI177484539
aI17623942
aI21802422
aI20684536
aI33381666
aI20457023
aI177583517
aI138912379
aI7605932
aI36889550
aI76672633
aI115315619
aI14842622
aI29793237
aI14659165
aI175704824
aI106180641
aI152039259
aI134446130
aI18763448
aI37943401
aI100784136
aI93058645
aI29731462
aI29011894
aI14390493
aI18403152
aI33513187
aI176521190
aI39721713
aI4018391
aI149689194
aI91457778
aI176466082
aI7771322
aI72954635
aI17809505
aI113448834
aI6758782
aI99173852
aI28820616
aI16083069
aI6092622
aI109759416
aI17406425
aI115699676
aI18336152
aI44152506
aI125463050
aI50989414
aI52881230
aI74084534
aI53948105
aI27871878
aI1460111
aI117899448
aI44905865
aI157555632
aI106143611
aI164000612
aI52285300
aI9936362
aI91983696
aI172363023
aI129301015
aI54234033
aI56646002
aI166000033
aI175516494
aI163358179
aI152190248
aI660253
aI14896287
aI19297978
aI9536032
aI145151745
aI82446050
aI129947717
aI67250724
aI31905388
aI49923286
aI14863134
aI129123426
aI96506787
aI133234364
aI95968075
aI15801256
aI20737153
aI22668055
aI20014063
aI43401136
aI30727171
aI47356638
aI48714206
aI63678356
aI135529848
aI12771552
aI15159368
aI118036384
aI26642006
aI13181282
aI18484992
aI12427512
aI170254241
aI18851438
aI769920
aI14259695
aI15452166
aI161411397
aI15015816
aI17988396
aI173815973
aI32445846
aI25278571
aI33476067
aI173352950
aI120794494
aI18635440
aI149243560
aI6989062
aI16152418
aI159213502
aI127954842
aI87553284
aI10098342
aI162684694
aI173430467
aI52194715
aI28290526
aI18661288
aI26740297
aI82423270
aI17677665
aI172767338
aI50589602
aI92975318
aI14879597
aI39457173
aI6254172
aI18807424
aI1002351
aI18794240
aI19957600
aI46082088
aI15757218
aI21206918
aI12498642
aI8025532
aI148854933
aI19247446
aI169415259
aI10136162
aI21267517
aI10730272
aI29107948
aI150938795
aI77110581
aI148329889
aI42748999
aI14071710
aI151876784
aI171510994
aI8207052
aI40699559
aI86849690
aI48364443
aI156122139
aI54907041
aI170300051
aI19465549
aI171279029
aI16995360
aI18051031
aI21224776
aI55568021
aI121737555
aI70690957
aI167831761
aI20352777
aI140133410
aI14762968
aI110462152
aI156447487
aI639743
aI8873302
aI67036173
aI23461049
aI13682902
aI31143134
aI16000391
aI26883106
aI109054515
aI59486601
aI9404452
aI48702629
aI155379140
aI113545535
aI15103887
aI117012582
aI15410571
aI9207632
aI14587917
aI18805970
aI17508127
aI7002852
aI93142291
aI5442282
aI63727186
aI20059560
aI14239320
aI22300690
aI17831708
aI103986899
aI17462890
aI19130313
aI67418102
aI26527397
aI23748491
aI15228731
aI818740
aI7531462
aI15646357
aI2086961
aI136525099
aI16030670
aI1787311
aI19699102
aI89411212
aI39519506
aI40247759
aI21189274
aI52012409
aI155711517
aI127936772
aI28834452
aI8449542
aI12037002
aI160999606
aI15589744
aI15611976
aI93285597
aI155714048
aI129302785
aI44923936
aI22930779
aI16531629
aI16018038
aI112017589
aI62571128
aI19292062
aI11566902
aI125406694
aI14392393
aI60992617
aI14622803
aI51028600
aI60854940
aI165929286
aI138132786
aI118707576
aI44090469
aI165668172
aI130429181
aI143441838
aI33869621
aI98336017
aI8996182
aI82381929
aI17968055
aI27735631
aI1385221
aI15438671
aI16103226
aI104110898
aI43312138
aI19716939
aI14843712
aI45572676
aI15154407
aI51186211
aI158189666
aI10419072
aI16545109
aI4151771
aI15528929
aI9820812
aI14428107
aI25301602
aI97913076
aI79979957
aI149417415
aI77108996
aI25535474
aI15133436
aI161322230
aI54800925
aI6395512
aI128311070
aI71705654
aI43881612
aI138029437
aI23376357
aI15012530
aI81571983
aI17812642
aI148421824
aI121855975
aI96599133
aI1751981
aI153753375
aI85701932
aI50963159
aI116326209
aI159549776
aI30947120
aI55859593
aI26280254
aI15595789
aI152875920
aI58740004
aI160161520
aI72822318
aI18902835
aI19726442
aI59629525
aI151816971
aI17112167
aI2069441
aI24393
aI14109267
aI28510136
aI11242532
aI66936138
aI105034570
aI154258201
aI98962753
aI17230407
aI19348774
aI26502812
aI36394623
aI19417227
aI8118532
aI34227622
aI18170974
aI14174897
aI156142024
aI157471710
aI29786735
aI14469687
aI16842901
aI135217661
aI14233368
aI15218292
aI118018672
aI19387845
aI154813107
aI35905147
aI107543906
aI55737636
aI17850459
aI28528693
aI118438396
aI14445214
aI90660242
aI5429882
aI13678922
aI19225056
aI6774272
aI155289995
aI15312786
aI50703
aI154844725
aI107911169
aI17958134
aI17042694
aI95928130
aI5861012
aI10839772
aI14547045
aI18090385
aI85953320
aI24691736
aI97210293
aI106929968
aI19046458
aI78442404
aI124698243
aI148365682
aI20756483
aI123548790
aI17294128
aI16608151
aI16625432
aI1227
aI15134039
aI39619991
aI92751047
aI153537564
aI8906982
aI58710950
aI20012130
aI8246862
aI147594489
aI35880072
aI15110189
aI72270820
aI152546507
aI80330424
aI31442892
aI135437569
aI8574572
aI2345771
aI98889760
aI28793544
aI60853045
aI18771390
aI135550215
aI14542170
aI14407990
aI142462038
aI42454941
aI40654377
aI15492501
aI45856775
aI5633002
aI113746377
aI109656417
aI18824622
aI9498942
aI72608550
aI14650742
aI21860546
aI25043546
aI139086058
aI18867635
aI26036492
aI14711939
aI91572127
aI774539
aI35515250
aI15791531
aI84414578
aI9153292
aI14801455
aI149885241
aI18224716
aI102552761
aI14966665
aI148663795
aI10735022
aI36023079
aI144475984
aI150225657
aI84545905
aI88449473
aI129087733
aI15112463
aI21148199
aI99605427
aI22098736
aI50993242
aI148049197
aI59535405
aI15621754
aI113667658
aI21396707
aI18339688
aI25840054
aI14693767
aI59118576
aI23967022
aI82405090
aI49329200
aI15174749
aI14592932
aI14448054
aI14193773
aI142738207
aI10886342
aI14085944
aI82053146
aI18968160
aI10071302
aI34904126
aI14726094
aI13075442
aI146287514
aI14469703
aI15877249
aI43021662
aI135458167
aI136725024
aI137712607
aI15102067
aI141404982
aI125499050
aI17597022
aI14083661
aI14650605
aI19612011
aI18435324
aI88842366
aI31719897
aI24421330
aI12699272
aI44733434
aI110076145
aI9360822
aI138969362
aI35901638
aI134943863
aI112381879
aI134210836
aI24170939
aI145060456
aI83580569
aI12014302
aI61868879
aI64824437
aI19326782
aI14094661
aI140111128
aI12539992
aI16789860
aI145566940
aI44329574
aI47116737
aI52341962
aI145519570
aI122457402
aI145348826
aI15842730
aI19528049
aI14498740
aI144872084
aI74046723
aI18505558
aI117440744
aI128686155
aI16099564
aI50109989
aI5995482
aI3792251
aI141997293
aI78829922
aI9483472
aI82303414
aI686363
aI17752572
aI14200113
aI15868872
aI84080519
aI112840178
aI23112527
aI28610565
aI2172121
aI144825432
aI50661776
aI18389199
aI131751636
aI19489114
aI93482529
aI78539977
aI18250007
aI143948721
aI9520112
aI63027307
aI17916617
aI14900065
aI78548807
aI18723683
aI543353
aI17214354
aI51205611
aI71286461
aI50807884
aI130436372
aI105076998
aI7166
aI36554489
aI9674032
aI16472809
aI105555558
aI28324714
aI38502536
aI135338336
aI84105644
aI142001737
aI80006261
aI29571816
aI20943317
aI132277236
aI118703245
aI39458638
aI40837772
aI108274994
aI19441069
aI76872973
aI31081677
aI15640433
aI97907015
aI18404187
aI123554067
aI38238525
aI89355755
aI102566030
aI15640348
aI119616337
aI20950798
aI70182417
aI25147663
aI141680879
aI135114574
aI103244671
aI69057512
aI93638392
aI7906252
aI14773646
aI14289812
aI40193885
aI14980342
aI24244099
aI23269692
aI1504011
aI92286170
aI122813821
aI8724262
aI9037322
aI82939594
aI137267564
aI14097089
aI53944823
aI54943455
aI48112023
aI106660215
aI54882857
aI78581225
aI86940135
aI27878666
aI68013983
aI2054261
aI113950546
aI16159538
aI14531530
aI138716927
aI14144801
aI55196149
aI16487321
aI14350702
aI39093164
aI138815908
aI54613848
aI36894648
aI6877872
aI729623
aI32885350
aI53892876
aI11537
aI112694809
aI126277907
aI130787780
aI86226470
aI24564718
aI15854117
aI58849061
aI107663159
aI3183721
aI137506476
aI125806460
aI20530586
aI44513040
aI15269397
aI19015716
aI68098912
aI10798072
aI17367982
aI32167214
aI19909160
aI136581521
aI15220240
aI15746577
aI110606356
aI2779251
aI15313661
aI15223619
aI37680207
aI14427513
aI136342834
aI112850247
aI17999181
aI17539130
aI17754049
aI14362522
aI5702
aI135287185
aI119810600
aI25041435
aI30483498
aI25164776
aI6259362
aI63677295
aI16821992
aI44284668
aI82026367
aI2041681
aI77184614
aI33006973
aI16839278
aI17874910
aI5271891
aI14176538
aI76280709
aI20640604
aI82692649
aI1100071
aI89139462
aI14511099
aI130924592
aI19225562
aI5862502
aI48399267
aI26619905
aI132968091
aI54505439
aI132447756
aI3494161
aI45327929
aI126121249
aI132542036
aI14747344
aI16326858
aI47880084
aI33847527
aI131874927
aI17958179
aI83563110
aI82873516
aI132178912
aI14304636
aI132107504
aI14374649
aI58610666
aI131943640
aI131280923
aI15962220
aI14552172
aI22924293
aI49579895
aI14508359
aI75509060
aI53048514
aI24035824
aI18521391
aI10774952
aI7790902
aI44349347
aI19259490
aI123536192
aI130787183
aI130602851
aI30197992
aI15770959
aI19465606
aI44909160
aI37406217
aI800575
aI28815445
aI10286862
aI84421627
aI18193593
aI78356461
aI98329505
aI26452462
aI98739605
aI2054641
aI48588084
aI18213135
aI121485284
aI64225502
aI123795731
aI20272845
aI15607513
aI5695422
aI15244330
aI56120038
aI37154585
aI18914609
aI16961084
aI83747189
aI26144768
aI127626234
aI15176610
aI48737976
aI8255692
aI28652066
aI16042571
aI19854126
aI97129674
aI47453351
aI802697
aI15419181
aI40260959
aI119448974
aI53605251
aI6183862
aI17461965
aI14392401
aI71605180
aI46185069
aI102039360
aI25547602
aI18906645
aI16256215
aI11984762
aI126431015
aI21028966
aI81819127
aI117549410
aI17738875
aI20585158
aI12616722
aI16102164
aI111077862
aI19692496
aI73563
aI22749856
aI382393
aI7398912
aI85778345
aI25447202
aI68807457
aI9781412
aI14621804
aI9698492
aI17153994
aI24205493
aI16976082
aI17292872
aI15090041
aI51592857
aI47747540
aI124104804
aI87048817
aI22475463
aI17484855
aI40856174
aI18508919
aI91891257
aI635743
aI13933372
aI16778769
aI92493256
aI21272322
aI92231035
aI20088940
aI18037247
aI55132218
aI112690631
aI14552082
aI20899086
aI115382718
aI19674835
aI113307663
aI26063636
aI101303305
aI22413079
aI7037192
aI92837013
aI15110183
aI19267072
aI86265000
aI22754163
aI17709077
aI8279402
aI66303587
aI117087356
aI104372065
aI16613227
aI16605700
aI15125799
aI14581346
aI5384212
aI36813278
aI18250415
aI5401212
aI104588719
aI121259113
aI122271087
aI16521091
aI116841740
aI15724422
aI22968363
aI23112400
aI109384096
aI12955672
aI120016430
aI17461638
aI7491832
aI69228006
aI17076372
aI22512085
aI25535320
aI61197773
aI16248904
aI88905793
aI116291266
aI120810079
aI20556294
aI14326263
aI18836209
aI95296236
aI44515858
aI15408235
aI62061848
aI9209942
aI36333739
aI48338555
aI57555987
aI16185081
aI22249401
aI110321211
aI1427
aI14242847
aI87228774
aI4083781
aI26439943
aI20984926
aI108489874
aI15731598
aI109830152
aI119681124
aI17755700
aI119431069
aI7157912
aI15591595
aI726443
aI91864479
aI108324961
aI100457517
aI10712392
aI20999375
aI72123335
aI21606233
aI7085462
aI111939523
aI104058944
aI113556344
aI118446392
aI15425803
aI18367054
aI88968372
aI115233426
aI18833061
aI15327250
aI76043415
aI117030416
aI111578081
aI7891742
aI18364807
aI17271789
aI87544120
aI19450354
aI89521019
aI84124015
aI17067178
aI51045400
aI5755942
aI3238281
aI7808742
aI33163
aI710543
aI22473120
aI20985630
aI27857285
aI109666355
aI48197450
aI84526867
aI74721312
aI109444108
aI16753946
aI34741692
aI67961374
aI7441282
aI38532040
aI23074651
aI111524235
aI13018372
aI19294998
aI111096272
aI28373348
aI14996514
aI27385146
aI48411030
aI47603564
aI47318212
aI111268365
aI26408707
aI48682181
aI114344365
aI71525249
aI72008813
aI44104772
aI111286117
aI100621944
aI20480333
aI96997667
aI6284172
aI109995397
aI89296952
aI15340863
aI71211689
aI102982752
aI112989585
aI22198838
aI93443294
aI11235292
aI15995577
aI29412160
aI70195455
aI7465522
aI111522110
aI14527865
aI5111511
aI20117981
aI73084103
aI11774182
aI6753292
aI23115884
aI91435640
aI17430484
aI17777117
aI14629948
aI108835521
aI110757618
aI62625073
aI6229662
aI7661222
aI111551720
aI31486044
aI111505106
aI66414747
aI17649840
aI19283747
aI19775233
aI47440072
aI15247066
aI765439
aI17500500
aI15891252
aI19654698
aI22135980
aI18776317
aI733073
aI68822408
aI15248516
aI14950029
aI80679460
aI14376749
aI23242773
aI14964533
aI23667174
aI13091752
aI18945904
aI108927607
aI6899132
aI25616190
aI81522995
aI105673145
aI109583717
aI66306641
aI19148535
aI778010
aI18621926
aI74320541
aI13520252
aI18806059
aI78258045
aI94997082
aI87179547
aI817394
aI68151500
aI16252331
aI58881034
aI60067178
aI99969931
aI23262673
aI17361114
aI16683494
aI47603127
aI5424472
aI17792766
aI102934695
aI14369931
aI17359127
aI54202954
aI18553947
aI27222138
aI13217672
aI8309652
aI17755595
aI20771164
aI17200008
aI35244984
aI16727579
aI76077671
aI16544332
aI28334029
aI96147328
aI103722548
aI14061950
aI14092028
aI105867591
aI17425796
aI90369618
aI81977395
aI31697311
aI12116582
aI23927359
aI8155532
aI1015031
aI20523480
aI39427734
aI19197166
aI42006345
aI43186378
aI59180252
aI17691704
aI103983310
aI32351954
aI17491781
aI16611463
aI18241222
aI4325861
aI5792732
aI11408192
aI102121021
aI46693815
aI21109178
aI103765608
aI53117295
aI14635958
aI14849093
aI14519015
aI22801529
aI102617462
aI19840892
aI31253
aI20268299
aI9239442
aI30644293
aI94524493
aI16169366
aI26518245
aI102497727
aI22666589
aI19982654
aI18136681
aI102316819
aI12149732
aI19418778
aI14103266
aI28977512
aI73641707
aI17486793
aI101869971
aI25656799
aI14114035
aI19504387
aI25206447
aI34110323
aI22759212
aI6918062
aI16269107
aI36014090
aI20956350
aI18669772
aI10003202
aI22786075
aI73578319
aI31513
aI15171952
aI7631932
aI26808562
aI59230700
aI17067290
aI87105803
aI28902799
aI65092075
aI91266552
aI87201663
aI100848963
aI99875181
aI19660957
aI54787769
aI100021825
aI87619797
aI34733652
aI90681421
aI78062984
aI94297993
aI38382904
aI7153152
aI99192827
aI82451351
aI97369959
aI81139759
aI11205022
aI89142771
aI15015126
aI5736262
aI98851192
aI23054162
aI97065810
aI14148285
aI63517004
aI18576378
aI5791302
aI6887882
aI82112817
aI24215327
aI79971525
aI697793
aI93684043
aI7555382
aI25276810
aI22657319
aI15076443
aI17716973
aI96858673
aI67973
aI52345813
aI76675731
aI14813053
aI96799688
aI789580
aI16389669
aI77893126
aI72082215
aI16729309
aI39221142
aI12045742
aI12036432
aI18972095
aI18808886
aI90019471
aI51500768
aI14833572
aI43307763
aI16542615
aI13486152
aI12976102
aI95804474
aI9745852
aI89419061
aI84493112
aI74552890
aI49358588
aI7089
aI14634995
aI16346234
aI25720643
aI11291122
aI95342170
aI95279235
aI14420197
aI26633401
aI23057180
aI95180674
aI93220312
aI17204043
aI14591033
aI36751934
aI13850552
aI16990708
aI27716228
aI765020
aI18732527
aI22719807
aI33333116
aI83173245
aI93676337
aI29471021
aI93944461
aI14389093
aI66904197
aI25699055
aI9637002
aI87814498
aI37004540
aI64266590
aI6163112
aI23244614
aI68894130
aI74112705
aI19026440
aI14060763
aI54657300
aI654443
aI92508243
aI91433466
aI15515020
aI498993
aI83905213
aI31219140
aI10030022
aI32049173
aI91419089
aI83380962
aI14276529
aI22135997
aI81900178
aI15172524
aI14929515
aI29774020
aI6045392
aI91303261
aI7276192
aI9074582
aI20365478
aI32991463
aI40168855
aI80983
aI91301059
aI8018052
aI17950133
aI24484875
aI90403419
aI15351940
aI54778867
aI42107565
aI4829261
aI42962171
aI16884787
aI1860471
aI19013891
aI11190392
aI20521245
aI18744656
aI13957392
aI27718551
aI14295345
aI84601714
aI22959871
aI57449296
aI16066488
aI10104322
aI85269643
aI72632741
aI9977012
aI14235618
aI86071210
aI43499515
aI70198211
aI39243429
aI86710225
aI19774409
aI24408665
aI10401502
aI14195350
aI89742585
aI22830556
aI33498410
aI72292642
aI11218322
aI65590913
aI16980448
aI16789581
aI25331350
aI16011932
aI18594407
aI14229474
aI883201
aI9890342
aI89328863
aI39396869
aI19240321
aI16608327
aI61142978
aI10629
aI17459110
aI11385192
aI51015461
aI72262353
aI22637976
aI16907542
aI58421332
aI18409554
aI44411894
aI14905766
aI88778617
aI16730223
aI16191902
aI76979070
aI88591041
aI29426685
aI14606414
aI687583
aI61738597
aI52823769
aI6576942
aI5160271
aI84680269
aI16705352
aI14264524
aI59133569
aI20817064
aI15596177
aI42291773
aI6146692
aI76058949
aI73655805
aI3612101
aI64145637
aI3749221
aI87611378
aI35183491
aI8120522
aI14404570
aI14918598
aI6805152
aI16788990
aI14302580
aI82312705
aI45482266
aI14867967
aI28990025
aI31234652
aI6656402
aI28598720
aI11851912
aI1026561
aI17591734
aI76138789
aI17171264
aI7809832
aI16568616
aI23426903
aI74900282
aI67187098
aI14712107
aI14188507
aI20900767
aI14087619
aI85087889
aI45758198
aI18955412
aI17452922
aI22891497
aI19968705
aI82034550
aI15719080
aI14798631
aI20203619
aI66859427
aI4370681
aI2325431
aI20445482
aI1099081
aI11773812
aI84019604
aI15103624
aI20532024
aI72309450
aI36172832
aI26534662
aI1111871
aI14665637
aI3251731
aI15393178
aI82393148
aI22931114
aI60377721
aI8620452
aI85713423
aI28645302
aI31380531
aI14822609
aI20851241
aI11874102
aI31432772
aI26987904
aI33637785
aI18864890
aI41127809
aI16787768
aI77846224
aI18266811
aI60636736
aI84869775
aI26145852
aI48535801
aI8552302
aI18257438
aI18166569
aI83934501
aI72571680
aI6593082
aI7766582
aI45540688
aI15424578
aI84156743
aI72545825
aI16576451
aI21500149
aI14406498
aI69893
aI14859017
aI41532100
aI83933766
aI18803412
aI79524936
aI17924723
aI19876581
aI17777757
aI17479851
aI19353490
aI52329979
aI20637655
aI19275545
aI40144128
aI1303391
aI20738786
aI74418340
aI81608480
aI71328790
aI71168709
aI29655599
aI14346361
aI14287222
aI14433757
aI7851482
aI7118162
aI15588153
aI68207959
aI33830298
aI43160985
aI18138972
aI15669249
aI82373025
aI38093269
aI9107602
aI3453571
aI62769667
aI9047602
aI18305351
aI17754120
aI15168085
aI39251726
aI14824282
aI14340928
aI38624123
aI7684072
aI79973518
aI8517152
aI81715127
aI8652892
aI2224401
aI14649653
aI78310016
aI67479474
aI71778675
aI68057790
aI20367725
aI16425848
aI81547312
aI79190503
aI8429042
aI17889032
aI14375999
aI14761939
aI21891116
aI40549035
aI16179338
aI16060978
aI607303
aI18664518
aI75645727
aI15171302
aI16410045
aI69133574
aI1525071
aI47416820
aI19305255
aI8938332
aI9479492
aI21784699
aI6532802
aI17074785
aI15792984
aI15251569
aI15582562
aI15881494
aI67950998
aI42152015
aI10172032
aI14814431
aI74667586
aI15619926
aI36632002
aI50482144
aI15071910
aI9641642
aI11056582
aI12649562
aI13429482
aI19248428
aI17670603
aI7001552
aI78865306
aI28122073
aI13924112
aI70793105
aI14215199
aI80015359
aI7480172
aI31432074
aI62021022
aI74496990
aI21981474
aI12532082
aI36731873
aI36630982
aI46978782
aI8699982
aI17207733
aI7524932
aI768945
aI74337695
aI21092927
aI17103453
aI56384788
aI28788603
aI51413277
aI31545674
aI26712949
aI7880662
aI19767655
aI76245662
aI14832039
aI77192828
aI15253706
aI12155
aI16566019
aI12357462
aI29197224
aI818340
aI14747183
aI18222346
aI73144770
aI13566672
aI18016020
aI17775715
aI48101409
aI46073119
aI76660246
aI53009295
aI76874775
aI56880301
aI24120020
aI14834444
aI28123043
aI2978921
aI23565937
aI62484618
aI30067399
aI16329969
aI27293815
aI57290191
aI35983511
aI68626569
aI45550469
aI49584644
aI16870641
aI60520199
aI20153000
aI20646424
aI17602022
aI30078954
aI13371562
aI21708229
aI17284137
aI15693067
aI19621110
aI18246693
aI1725531
aI12468502
aI75647135
aI19074827
aI11474272
aI37222477
aI14322439
aI1163261
aI5017391
aI18871681
aI1475151
aI14395095
aI17340764
aI8499732
aI13693042
aI75611930
aI61003953
aI36039308
aI15272784
aI55323423
aI20318993
aI48203165
aI5890842
aI66596668
aI42838539
aI33608239
aI21355747
aI12179872
aI7666122
aI6630302
aI65875486
aI8055642
aI62523592
aI1193861
aI13102892
aI16971870
aI15486154
aI15895094
aI15696734
aI21084111
aI11967442
aI69431205
aI1219831
aI73934334
aI14867799
aI27679556
aI15051219
aI23751864
aI74435134
aI32364959
aI74409589
aI17023492
aI18927985
aI16012240
aI14595818
aI59713792
aI15371523
aI71778639
aI17353899
aI18947770
aI18936606
aI7087662
aI5533782
aI71063132
aI14446434
aI15767603
aI71217572
aI10186052
aI17777608
aI705613
aI17405847
aI67005857
aI17361270
aI18307213
aI34220928
aI18142494
aI70280782
aI23718964
aI71253633
aI34956304
aI55587267
aI41841644
aI71106177
aI50081569
aI70664211
aI70734390
aI35242588
aI14620824
aI70601251
aI37801244
aI57292924
aI1740241
aI44202297
aI17393418
aI64172365
aI14632689
aI14568034
aI15143765
aI14729337
aI16681972
aI39320045
aI65261359
aI5883962
aI19908349
aI14811322
aI14153491
aI16529453
aI14636665
aI24961373
aI11791072
aI29468552
aI14576439
aI28308752
aI38669711
aI15048943
aI54827409
aI55309606
aI13860742
aI5415222
aI925391
aI67311712
aI39275542
aI18764304
aI17485333
aI20842506
aI20790148
aI3593
aI17469273
aI18063131
aI7219
aI49567907
aI15206810
aI5979212
aI14789738
aI49299980
aI14084292
aI397633
aI788392
aI6176952
aI14986518
aI43401241
aI20115839
aI5749842
aI7827622
aI34776179
aI8929192
aI3432881
aI26725888
aI20119583
aI23204850
aI16437760
aI821996
aI15071985
aI883301
aI19732725
aI14648796
aI58969973
aI16922801
aI14838152
aI14870666
aI16015481
aI15756787
aI24393154
aI15277488
aI21058082
aI12574332
aI5690052
aI24875661
aI10662582
aI20605122
aI14672545
aI34720124
aI13064652
aI66184572
aI47301097
aI17510107
aI15352551
aI65718357
aI25478227
aI14567286
aI8171562
aI5363182
aI54883524
aI3096351
aI13065102
aI12161932
aI36954398
aI64728096
aI6768482
aI15491783
aI822825
aI14650385
aI62560365
aI16451036
aI8521932
aI20938255
aI14243746
aI15515405
aI16554127
aI19724908
aI25925346
aI53268835
aI58181147
aI31496895
aI24411930
aI1496911
aI31267315
aI18480522
aI24577454
aI25752218
aI49582850
aI16854929
aI41321838
aI15378098
aI6219782
aI58066501
aI18947149
aI34856268
aI47453
aI17519769
aI14200886
aI62869012
aI16054449
aI44181824
aI14854474
aI14865840
aI15567386
aI62132248
aI24275407
aI18618298
aI17368691
aI27553629
aI14147584
aI49815092
aI24916246
aI18762121
aI59109868
aI8039622
aI47805922
aI33923153
aI51876422
aI21190944
aI757933
aI16997044
aI45116420
aI54836075
aI55347568
aI892561
aI58737110
aI14208919
aI15947897
aI51693266
aI50020213
aI21005037
aI28085574
aI18273525
aI6877632
aI57155431
aI14214880
aI16245040
aI17960772
aI54300677
aI31505435
aI56414701
aI56345949
aI7929742
aI15688376
aI10754142
aI41576477
aI23576693
aI19226011
aI54561181
aI55546212
aI22403565
aI17387138
aI28316320
aI1643641
aI53198413
aI15840221
aI22496007
aI54810639
aI6132392
aI53323017
aI54799967
aI15963513
aI54125487
aI17051557
aI15293583
aI25253501
aI11515492
aI34768423
aI12528592
aI13247472
aI48721242
aI49636155
aI17733645
aI51543283
aI17656122
aI45286496
aI14113734
aI46712565
aI16528262
aI52355965
aI680243
aI19200603
aI14135129
aI38450995
aI15111659
aI14408716
aI49017581
aI21077164
aI16961256
aI50766276
aI49821760
aI46872425
aI9954282
aI11999302
aI29619059
aI35170773
aI50036401
aI16812250
aI18718126
aI29892472
aI22542165
aI25509775
aI49604055
aI16804419
aI16884611
aI48689317
aI19036045
aI41137959
aI27652168
aI14636243
aI24187903
aI8993362
aI41865658
aI14071642
aI9723242
aI47332859
aI27458434
aI15199054
aI16613950
aI16175895
aI15633173
aI47708714
aI26794938
aI3311341
aI14425249
aI18040773
aI25063411
aI2963181
aI33168950
aI17077432
aI15796882
aI15733085
aI22291568
aI18745106
aI24587852
aI13205612
aI17756554
aI42651620
aI23315326
aI14061143
aI14972418
aI27048755
aI30632371
aI28400014
aI45879154
aI23017333
aI10867932
aI38487525
aI17944252
aI45407454
aI14476022
aI14469768
aI22805628
aI14784250
aI41342428
aI38654610
aI45095695
aI14382094
aI45017624
aI18131016
aI14351248
aI8748192
aI28139774
aI25685423
aI14217232
aI14888033
aI1135581
aI17893
aI7017852
aI14176794
aI29269044
aI39056401
aI15489511
aI16805433
aI6075552
aI15746634
aI21489204
aI17519986
aI39124816
aI9829852
aI18627655
aI35535296
aI17083959
aI29999561
aI16622206
aI32777326
aI15713022
aI36220048
aI3610511
aI14624309
aI9428512
aI15126381
aI27847098
aI15484003
aI41137173
aI18598599
aI22679946
aI36667104
aI36647735
aI17456477
aI14841609
aI7040032
aI16726914
aI26539166
aI14937493
aI25860941
aI25567693
aI18049877
aI22594531
aI16956900
aI9699592
aI22835432
aI21863326
aI19223329
aI20674258
aI17384413
aI38970290
aI16893700
aI26093929
aI21580171
aI20402762
aI18499680
aI22544693
aI10964822
aI23785860
aI17517498
aI20442627
aI1441291
aI28492528
aI23353729
aI17121016
aI20187556
aI18628655
aI30717972
aI15332589
aI18076517
aI16069181
aI31700964
aI15364214
aI24803082
aI17037262
aI18684373
aI16841164
aI38362796
aI19637908
aI763489
aI5804512
aI30351678
aI15456130
aI7426082
aI32491666
aI37860348
aI17364576
aI22533946
aI17792330
aI14286782
aI7012822
aI35518956
aI1891481
aI17686036
aI7731482
aI26868553
aI9853652
aI36853217
aI15258060
aI3324171
aI21214424
aI37389844
aI24154058
aI13002342
aI23135024
aI27727821
aI19533282
aI35362611
aI17835323
aI32889156
aI14341305
aI19629741
aI14307083
aI23630080
aI11369642
aI12378122
aI15402802
aI760654
aI18355487
aI4426901
aI15758557
aI31794852
aI741043
aI15831401
aI14508265
aI14993657
aI18448395
aI31122055
aI35486899
aI18591985
aI17227918
aI15650735
aI18071941
aI19273332
aI14057953
aI17824040
aI33860737
aI21286819
aI34570753
aI16588553
aI21900230
aI24886327
aI22120314
aI1095511
aI33459232
aI10239
aI18186824
aI14824647
aI29394734
aI14819642
aI14946076
aI16112517
aI939321
aI25392036
aI22038757
aI16168686
aI26030498
aI13304662
aI18978551
aI14543294
aI18185566
aI21129386
aI5135
aI20926672
aI31831518
aI15606719
aI15861166
aI15320612
aI29967065
aI11937562
aI28665010
aI15675156
aI20427230
aI31120708
aI21065042
aI980971
aI15416497
aI31519608
aI1806671
aI15372593
aI19182757
aI29408067
aI23519852
aI11210962
aI19292295
aI2463361
aI23650188
aI14123066
aI17578429
aI26515279
aI29367711
aI26993096
aI24290590
aI20658318
aI22199448
aI1026141
aI30144987
aI20635944
aI14158420
aI688563
aI29054735
aI23380961
aI29055401
aI19099916
aI5963282
aI20662462
aI28538844
aI18123
aI14626019
aI29650610
aI22136299
aI7648262
aI25826270
aI26260320
aI27453546
aI15294347
aI23245206
aI28523285
aI19539264
aI12782772
aI19156875
aI29058243
aI14374270
aI19350748
aI15667790
aI23626316
aI27820375
aI14775336
aI17804091
aI14988577
aI19253183
aI5477242
aI20581722
aI8920132
aI24051956
aI14000542
aI22946405
aI21990392
aI26042275
aI15117375
aI3508431
aI14807647
aI18185201
aI1818841
aI9360242
aI18701273
aI19817725
aI23666998
aI16407218
aI23247138
aI7062442
aI25488672
aI4759341
aI17087151
aI8474742
aI8352512
aI20310141
aI7563172
aI26615246
aI23055491
aI18904698
aI20109515
aI18317397
aI14471101
aI16387035
aI16000720
aI18529619
aI15235297
aI25151614
aI18168823
aI24406686
aI5175941
aI24494851
aI25975044
aI20086677
aI26576214
aI19409401
aI13310552
aI14416525
aI15361691
aI18407045
aI14139866
aI21321269
aI14149594
aI185383
aI16564631
aI16911276
aI23672199
aI20730951
aI14809600
aI24691525
aI671683
aI14653524
aI17877913
aI22031223
aI9702592
aI5101191
aI16478667
aI17967483
aI73853
aI14068000
aI19753233
aI15840926
aI7974522
aI19375605
aI23935172
aI14936962
aI16441035
aI20650315
aI15770029
aI14813263
aI10364022
aI22899055
aI15970289
aI16866844
aI25545882
aI15306084
aI19665124
aI19132120
aI17041805
aI15579328
aI1318841
aI5851532
aI9229582
aI1290301
aI15701728
aI19024569
aI20134134
aI14830528
aI15127864
aI3389481
aI18248746
aI5560432
aI26546715
aI17887260
aI18719088
aI20978141
aI16550468
aI18038007
aI11039482
aI23775160
aI14676537
aI13181632
aI15432073
aI16260229
aI17491382
aI22052829
aI20393720
aI17742620
aI14715286
aI18638641
aI24888666
aI6889532
aI25845368
aI24538674
aI25228325
aI25861050
aI51373
aI24423261
aI15387841
aI645003
aI18683870
aI24379372
aI16709304
aI19114465
aI16989772
aI20784548
aI12806102
aI917381
aI9227402
aI22379679
aI456
aI14323426
aI14592088
aI22032414
aI1425131
aI14697917
aI1251201
aI23099466
aI15162143
aI1839381
aI7792742
aI15202065
aI22239633
aI21815950
aI11398562
aI13065092
aI5490442
aI1299341
aI5038461
aI20549470
aI45643
aI57743
aI14620544
aI812567
aI14245415
aI14414184
aI17855804
aI16509438
aI14104435
aI21695487
aI3975271
aI8564482
aI17201542
aI21049121
aI9333752
aI23024510
aI17070439
aI14759285
aI21389590
aI615283
aI23905528
aI16197781
aI13598712
aI14454480
aI15730138
aI15769292
aI17042552
aI22631805
aI14310077
aI12941802
aI16276125
aI12708972
aI2728291
aI20911977
aI21984483
aI16321950
aI14874721
aI19206924
aI12855572
aI14796100
aI856911
aI21431326
aI3499161
aI1366811
aI812984
aI10654322
aI16910767
aI21465165
aI11867332
aI14521343
aI16906986
aI10699072
aI14976542
aI17399684
aI21094315
aI19375950
aI14965636
aI16530691
aI17212988
aI10029242
aI16795558
aI17013577
aI16006432
aI14872939
aI14792516
aI20527851
aI19951439
aI20052763
aI14246122
aI15399031
aI1487011
aI14621598
aI14284157
aI20723245
aI20707190
aI20279146
aI15906598
aI16440882
aI8612292
aI20623937
aI14684449
aI1276131
aI19761362
aI8161022
aI8833542
aI15861842
aI1554031
aI15022241
aI17074214
aI15748351
aI17504691
aI16330986
aI8096122
aI19332658
aI19060702
aI7838872
aI14104299
aI19246461
aI17493503
aI18584272
aI17137749
aI14302030
aI661553
aI4363311
aI17823125
aI17449590
aI19618121
aI13192
aI14946789
aI6571882
aI14274596
aI18300176
aI17581976
aI756979
aI6627892
aI19230457
aI10423712
aI14476451
aI9464552
aI16061930
aI6413072
aI14064661
aI19125944
aI14412817
aI12499182
aI8529152
aI14196638
aI18511690
aI14207040
aI14841541
aI14088982
aI2204971
aI57143
aI28243
aI17576208
aI17710984
aI18557627
aI13199732
aI11267242
aI8062702
aI17863
aI74437473
aI23158698
aI316511138
aI329714473
aI16165758
aI11156392
aI21550432
aI21442370
aI271101556
aI790539
aI15408692
aI21899900
aI111440174
aI165448922
aI17762951
aI287004242
aI30576670
aI78414692
aI43287329
aI288875885
aI12551382
aI332963387
aI10386412
aI11472282
aI95411104
aI19695949
aI286939545
aI90021653
aI62921706
aI80979519
aI328431267
aI67586102
aI326907675
aI779169
aI40205001
aI9346102
aI43601426
aI43335738
aI7082172
aI70942939
aI22900580
aI317981726
aI24001480
aI177596632
aI42641813
aI24055929
aI15144620
aI17939592
aI24712293
aI9659842
aI22686183
aI39579439
aI77284255
aI148565589
aI6880262
aI37174927
aI797380
aI17139261
aI317246720
aI82063
aI201145160
aI19198440
aI313510238
aI73212447
aI18432007
aI17751344
aI16737785
aI21903588
aI14866515
aI19349889
aI2383781
aI14279270
aI51982249
aI303687748
aI16100710
aI263120513
aI19159781
aI15132914
aI29227971
aI222116841
aI17011077
aI21906143
aI53411390
aI15754238
aI15527514
aI34571835
aI117720523
aI249566527
aI25059274
aI49348635
aI171957271
aI180006383
aI82582950
aI7382522
aI138053320
aI296133147
aI63508984
aI86904365
aI19420903
aI301026829
aI60853986
aI6787022
aI15167969
aI168229163
aI9263582
aI21587430
aI79818021
aI280913449
aI55231996
aI63408101
aI19233200
aI245375434
aI145477033
aI19893224
aI38846534
aI124352616
aI20245109
aI58916490
aI24303098
aI80920683
aI65613504
aI3435131
aI15392102
aI14429900
aI19596074
aI94163566
aI50085625
aI21301122
aI1185641
aI23991591
aI287600080
aI1436631
aI46533089
aI19186482
aI11837232
aI217196376
aI216356099
aI14109167
aI275437866
aI6886122
aI17979293
aI211481445
aI17793266
aI19145206
aI148005286
aI16043870
aI24114139
aI44418738
aI14908972
aI18855622
aI25288628
aI261199427
aI200958963
aI15368585
aI27939629
aI83631786
aI82179521
aI7787602
aI257939734
aI177483499
aI246508058
aI763032
aI261767562
aI15050391
aI73121672
aI73293504
aI188326894
aI254531447
aI138177917
aI21308993
aI14562578
aI220597281
aI22822174
aI33388839
aI253124077
aI132300154
aI40908982
aI71291461
aI252473429
aI14672611
aI246698014
aI73983545
aI17268874
aI32395954
aI246795558
aI14597057
aI5675902
aI126410524
aI34035850
aI30296957
aI682263
aI8466322
aI14706547
aI90532719
aI7256702
aI8476192
aI226737780
aI53738969
aI65767769
aI95396970
aI15319474
aI218802877
aI190935952
aI204735071
aI37546767
aI15783108
aI16332914
aI77343214
aI14953016
aI53118775
aI111340180
aI14324345
aI15178584
aI14367955
aI93058830
aI197662233
aI145677162
aI32228735
aI71885308
aI199390759
aI240029164
aI14166589
aI13478302
aI13395932
aI12159612
aI143676879
aI213862383
aI209290883
aI20696610
aI216945365
aI198274151
aI93583472
aI19002007
aI29071904
aI28210273
aI14457674
aI21412626
aI32395833
aI14221478
aI9448512
aI23349965
aI100303943
aI17844960
aI113103404
aI94082626
aI121457331
aI89283111
aI7013182
aI11982872
aI109613064
aI43019230
aI85138805
aI126892506
aI205979655
aI17038876
aI52689556
aI44271484
aI55247508
aI1435781
aI14740434
aI31536120
aI81138450
aI35743411
aI168345184
aI29975090
aI55209026
aI72598303
aI17168525
aI65100198
aI194184837
aI16056360
aI14251144
aI9465632
aI96192662
aI23793114
aI46167885
aI211898863
aI14813636
aI224577080
aI24667978
aI16126187
aI107775711
aI16571746
aI155945745
aI17018765
aI208232523
aI104019327
aI191897226
aI15272106
aI223351536
aI15431437
aI89568560
aI1750471
aI23363225
aI151378362
aI15648006
aI215507058
aI48956797
aI54139486
aI183537138
aI19070986
aI18943624
aI152508330
aI16557883
aI71438797
aI58728483
aI140428623
aI42241755
aI70259995
aI199025142
aI14342475
aI16595348
aI130705524
aI39623758
aI15838516
aI115022430
aI124632266
aI184190583
aI7111262
aI186974470
aI15029906
aI12149092
aI19408974
aI67297193
aI18115856
aI102580751
aI126617365
aI158685605
aI18704160
aI44195788
aI82713840
aI19554781
aI337804710
aI40557107
aI16435008
aI229823184
aI334568439
aI334735454
aI243630564
aI18725093
aI258479007
aI114595646
aI337637224
aI39857923
aI153331679
aI95452885
aI166916033
aI58960864
aI156547866
aI188675048
aI337960706
aI338135729
aI15833949
aI250508562
aI170172963
aI13033662
aI15057581
aI27841022
aI15004112
aI337745778
aI337731251
aI19237755
aI287352252
aI232302159
aI326760381
aI11208452
aI51489765
aI104436458
aI288480354
aI296193923
aI293473586
aI24506099
aI47286306
aI336935283
aI54158396
aI260390557
aI118413009
aI18602988
aI224925201
aI27248691
aI297105457
aI332161992
aI336176203
aI19294289
aI68191775
aI244898667
aI15078986
aI116231281
aI20486363
aI14571404
aI162063715
aI258944931
aI196194962
aI329558084
aI289239353
aI321360213
aI329454656
aI17441013
aI74712691
aI118773331
aI30978735
aI318192181
aI116904625
aI335488692
aI56208963
aI18246949
aI320903321
aI14145371
aI260688537
aI23523368
aI191778246
aI100814547
aI288429976
aI17063634
aI41546721
aI36549559
aI280586362
aI18101420
aI310302837
aI13009062
aI275468375
aI277895228
aI21749167
aI243332563
aI334105855
aI6484432
aI19062381
aI117152110
aI20693147
aI76297612
aI11993212
aI303606234
aI37886685
aI22720693
aI117841800
aI289605125
aI110871151
aI201400520
aI23583823
aI28356631
aI18447294
aI110972741
aI221857502
aI175662775
aI256567244
aI264321830
aI21142199
aI334147349
aI82267412
aI39812431
aI47228848
aI99033356
aI308342023
aI211044347
aI293296143
aI39273061
aI155061887
aI9839322
aI220799634
aI285646074
aI25723800
aI329711899
aI25684578
aI159698898
aI17520547
aI15420213
aI316898559
aI333442765
aI321005712
aI161469162
aI333131019
aI179797676
aI14054259
aI189178676
aI174447494
aI8876152
aI19534616
aI281506114
aI40833387
aI331517890
aI182561385
aI11886562
aI299538210
aI205714062
aI18134400
aI303932504
aI289175338
aI288818231
aI35808760
aI20733129
aI43812565
aI17606162
aI117903884
aI213917132
aI332208602
aI298899556
aI320590444
aI18169102
aI332238916
aI332199458
aI54774043
aI331996826
aI17080717
aI139183628
aI6881242
aI53597537
aI281212105
aI295017740
aI17619269
aI310947047
aI190253046
aI49489995
aI113685902
aI76027241
aI161185778
aI25718714
aI23716645
aI25723265
aI116567239
aI15525487
aI329860454
aI94580519
aI134592888
aI17938604
aI18185505
aI245974254
aI11859882
aI218111299
aI208652442
aI21588361
aI94647534
aI140299737
aI12044422
aI273939424
aI277411730
aI62513321
aI8675472
aI23143763
aI34621437
aI301297881
aI5797062
aI23580544
aI330915289
aI14432528
aI167908095
aI25359130
aI14489997
aI323232913
aI184770234
aI21980224
aI194694254
aI167277596
aI5711322
aI160309919
aI22609105
aI295797551
aI17373501
aI49785127
aI40476223
aI256914482
aI292528550
aI132520002
aI14088776
aI5723802
aI235228270
aI171687421
aI216133116
aI290538339
aI317552332
aI15609696
aI1274231
aI48776435
aI305757280
aI314517663
aI88382659
aI16707190
aI75564946
aI196458556
aI8301972
aI26723240
aI151732945
aI300942904
aI72605623
aI95885662
aI235009656
aI205287250
aI15316406
aI319643260
aI183575679
aI136151851
aI17437733
aI169858657
aI59525010
aI29082607
aI11991002
aI156048683
aI18154211
aI188912471
aI46870065
aI46974117
aI91106214
aI326730099
aI172620648
aI179507686
aI15536643
aI11745
aI65584674
aI2981431
aI21080270
aI41847136
aI9347472
aI16981847
aI221656341
aI22312809
aI302076436
aI5886342
aI76675366
aI183293830
aI181112885
aI318576387
aI54892954
aI9964362
aI65959726
aI145387785
aI311449733
aI15347572
aI6610482
aI43139594
aI234089112
aI327379861
aI110228497
aI20087640
aI16534866
aI324611743
aI50417067
aI325949696
aI6154922
aI327110204
aI264378783
aI192961369
aI306224071
aI24645795
aI174781494
aI21172901
aI215371494
aI19597596
aI22004499
aI321449701
aI208633829
aI323876784
aI12964222
aI25813708
aI41681465
aI56199607
aI15037837
aI33884372
aI60480508
aI23081573
aI326099642
aI14258044
aI107344379
aI7687642
aI133664771
aI28476259
aI316556824
aI14316077
aI112233353
aI244851076
aI218085200
aI43855748
aI53923335
aI29305106
aI220144605
aI22147683
aI112199698
aI72822596
aI84163599
aI204965517
aI28431235
aI17746141
aI325006113
aI36534766
aI14859942
aI297972314
aI296643440
aI15448732
aI239546992
aI201780177
aI19027994
aI39462470
aI279756510
aI324426099
aI125200967
aI36760904
aI56979356
aI324149236
aI316760499
aI19589618
aI7088202
aI16012732
aI26719606
aI322477161
aI148805260
aI166261900
aI273234774
aI16578116
aI22886214
aI46746900
aI22156273
aI240809509
aI14066429
aI72084605
aI14395331
aI14101342
aI281906108
aI105203822
aI30843599
aI113137694
aI243380895
aI9088102
aI323119120
aI4628161
aI21361741
aI20973716
aI29497240
aI20910067
aI222915431
aI20897459
aI215212832
aI130956565
aI295828060
aI301422918
aI176781367
aI9717892
aI322735608
aI136348252
aI15518881
aI55628543
aI318648263
aI322309606
aI113925870
aI20396242
aI316665062
aI49437505
aI21520612
aI307245890
aI98399928
aI232842873
aI317791051
aI320934526
aI149611083
aI91380151
aI293622297
aI42426754
aI20440932
aI25399998
aI317363924
aI110930153
aI23926947
aI290377779
aI158039222
aI271391694
aI113969652
aI314813134
aI211278680
aI8123772
aI68312411
aI316832610
aI7518892
aI33736942
aI1652821
aI321230820
aI109495808
aI110134962
aI234211188
aI309997967
aI17544140
aI318666128
aI126095512
aI33465408
aI14350326
aI87231887
aI320851596
aI1593341
aI94296926
aI17062665
aI12114162
aI315805193
aI15957513
aI45834054
aI132693013
aI46895324
aI278464848
aI11676022
aI102677973
aI320442765
aI6718502
aI26873123
aI317545153
aI26667476
aI60760796
aI312648240
aI103549201
aI9846452
aI93078877
aI58118597
aI164870661
aI207078183
aI188398717
aI313495929
aI304897556
aI110121475
aI35785607
aI220012020
aI73795154
aI22126835
aI18658713
aI317831930
aI269560722
aI88959761
aI21835239
aI270118116
aI243954159
aI25664803
aI110651666
aI295300805
aI284553485
aI14713041
aI28017855
aI114395724
aI164362646
aI115018641
aI175106831
aI151736496
aI25817941
aI155476322
aI22769774
aI62198191
aI213363954
aI183748949
aI47880671
aI183696370
aI282597139
aI309702842
aI97340461
aI302750212
aI14550714
aI99537955
aI14314029
aI13924292
aI318625017
aI253250251
aI157238768
aI237393670
aI266665009
aI15626843
aI312295459
aI20535320
aI317788983
aI24152162
aI11930
aI246961114
aI172163167
aI83747799
aI5581402
aI101593407
aI318140461
aI8921312
aI6882092
aI213529497
aI123652237
aI21213695
aI63798853
aI31085022
aI315904208
aI49110504
aI67572375
aI317751806
aI288766631
aI32021825
aI308922902
aI309676295
aI12997962
aI153640989
aI15861003
aI16353488
aI15755206
aI101817972
aI299681019
aI18742117
aI34544106
aI61154812
aI1520301
aI18956231
aI317229501
aI312321553
aI10116102
aI213600543
aI14664166
aI7669962
aI35717521
aI194637966
aI316999692
aI5504552
aI19908090
aI95435663
aI317013357
aI39958062
aI191773505
aI21849412
aI124245996
aI222882045
aI126439015
aI14380553
aI316836104
aI207344147
aI19642688
aI113296503
aI271251672
aI8439332
aI316411441
aI250260564
aI43294406
aI297836485
aI31079678
aI6498212
aI193860966
aI302413677
aI105532261
aI118821644
aI14274894
aI33312271
aI257673969
aI22882135
aI16336998
aI253039929
aI14952241
aI198982229
aI315047404
aI258983015
aI17736871
aI122335605
aI56033480
aI291823345
aI304895526
aI17007083
aI314427699
aI310887395
aI766044
aI267969421
aI165751336
aI23087210
aI97261253
aI18820856
aI229237658
aI308418574
aI302529541
aI66797165
aI6627802
aI215940474
aI70950401
aI312573499
aI20047746
aI17475209
aI82289657
aI15693570
aI774097
aI104192500
aI18167127
aI224785380
aI203541281
aI52669110
aI163538584
aI19663369
aI127032610
aI112797762
aI19598781
aI106799343
aI17655588
aI14435086
aI75697367
aI77938773
aI282400086
aI90746174
aI22184700
aI291154909
aI16530706
aI16012055
aI7219072
aI18082454
aI26918718
aI206869276
aI311465704
aI296303341
aI311380655
aI257670900
aI102012527
aI17938490
aI311198542
aI277855893
aI311178758
aI293611785
aI19270269
aI17420740
aI91795651
aI13931402
aI22412426
aI310278039
aI293862191
aI30591110
aI27797838
aI17338834
aI15351726
aI46088138
aI309741769
aI14265876
aI14862723
aI14407651
aI41737572
aI36036586
aI4628771
aI29112571
aI86778849
aI14545970
aI14775345
aI142943196
aI28492149
aI127499769
aI248240755
aI109359370
aI42827751
aI274579334
aI14660390
aI157311292
aI157056263
aI79118559
aI77326582
aI22318693
aI21361477
aI9517512
aI214291784
aI11200032
aI308370163
aI297508042
aI73415148
aI308166082
aI287387396
aI61777883
aI288693403
aI303271017
aI26508021
aI20114649
aI28464114
aI15397029
aI186727024
aI249069961
aI284557481
aI118147055
aI18129188
aI306073784
aI3975231
aI19225408
aI21545602
aI306600934
aI186048745
aI133979367
aI9736472
aI260456945
aI87021748
aI134022212
aI8132322
aI109648780
aI273312052
aI306101438
aI19287846
aI295296876
aI133884609
aI166102738
aI275469800
aI186548780
aI89036074
aI10493732
aI19103928
aI20503318
aI42416535
aI33465631
aI22915727
aI215827963
aI144426772
aI87943233
aI6089432
aI4200181
aI15168355
aI57949239
aI172047634
aI289852208
aI275054206
aI2026851
aI41886490
aI107528715
aI161438266
aI117674819
aI23728917
aI157359081
aI207191164
aI294088744
aI33485039
aI173098333
aI16416648
aI207333293
aI36282088
aI39373368
aI293370208
aI1239931
aI8936662
aI84707836
aI29292186
aI227103327
aI14436869
aI191965355
aI60694534
aI68942792
aI91455856
aI74727771
aI282238436
aI64713
aI63035414
aI142785877
aI108245046
aI283402258
aI297171115
aI302836674
aI59117590
aI40450687
aI27954020
aI35193677
aI45635686
aI195800932
aI265071717
aI250298945
aI20255828
aI106198153
aI96946282
aI257103555
aI15223807
aI37931253
aI16364404
aI23455349
aI15365775
aI301469665
aI284350672
aI271566960
aI16355572
aI214685325
aI37046167
aI9865842
aI68877317
aI17386137
aI118366757
aI88957029
aI148056950
aI22168096
aI203374798
aI14767656
aI95188086
aI301044846
aI301074036
aI262368617
aI19513770
aI183723910
aI75359883
aI90201804
aI74237385
aI285193819
aI253372989
aI24436758
aI218865358
aI8485792
aI221954571
aI230313275
aI19648567
aI203486949
aI40011104
aI7387922
aI20532345
aI52916769
aI78625153
aI32346426
aI73251272
aI7227522
aI104438830
aI15440488
aI15281003
aI15431152
aI256866472
aI123543066
aI105156668
aI128912066
aI55510482
aI21271500
aI203455506
aI296733306
aI15878314
aI10854882
aI117843491
aI21415409
aI22968317
aI175419341
aI15290523
aI249378970
aI14883314
aI13858802
aI20532350
aI39076128
aI21359460
aI13575452
aI7789042
aI18027149
aI71317489
aI143671145
aI33353061
aI162048022
aI275928942
aI249276714
aI71248552
aI275683131
aI15187346
aI297594123
aI70393711
aI88919902
aI258874041
aI21299588
aI19770476
aI232316493
aI297731734
aI150478028
aI115844227
aI294167316
aI291725344
aI166004192
aI128566143
aI18076595
aI155677299
aI29166694
aI33029064
aI297204318
aI34210395
aI15994128
aI16564113
aI206375427
aI203637885
aI629033
aI14414919
aI43110555
aI1873711
aI14339703
aI76764540
aI14146934
aI289519205
aI100564991
aI240183429
aI43855432
aI13148
aI8823992
aI156031097
aI50541524
aI41811740
aI260564161
aI94626824
aI91661587
aI273626579
aI255965274
aI295820618
aI54846483
aI14116409
aI125175076
aI295726993
aI20631647
aI108653823
aI285009617
aI87520186
aI16900591
aI281127557
aI154284493
aI294947435
aI17971517
aI18421183
aI295199398
aI285259563
aI190656757
aI295271624
aI15921550
aI290471698
aI44259942
aI272724855
aI216039389
aI18447313
aI249578594
aI30924891
aI26440647
aI294696727
aI136582454
aI267368915
aI16625366
aI15349921
aI12997952
aI15967248
aI19337084
aI146441292
aI10072062
aI118798373
aI16524008
aI191058283
aI15147281
aI119470659
aI14760428
aI23182885
aI197377338
aI23299014
aI15829471
aI293963851
aI93852336
aI7798432
aI252583466
aI3623021
aI27351545
aI24772197
aI231823375
aI293135961
aI14078000
aI186136034
aI20046154
aI17490510
aI212625709
aI278189093
aI293433047
aI274410963
aI234425557
aI14817551
aI194614134
aI292553364
aI284536360
aI213297153
aI30714826
aI5739372
aI10144152
aI83597654
aI17629700
aI123342419
aI291694475
aI151450299
aI285168827
aI21407531
aI110356306
aI111510079
aI14094956
aI37596063
aI803156
aI171111721
aI136272902
aI233563337
aI2097951
aI21309725
aI291064247
aI79076734
aI238410514
aI249120592
aI14364105
aI14062221
aI281118653
aI119730622
aI263229174
aI14468796
aI257734396
aI48321718
aI12539062
aI178265600
aI64207290
aI14517522
aI236032755
aI290339454
aI37419877
aI35592012
aI46981936
aI224610877
aI6351642
aI15894889
aI267908574
aI252797469
aI12065472
aI28852639
aI270359098
aI108173130
aI14575614
aI7858412
aI237786154
aI21037131
aI274698690
aI288391652
aI289330063
aI67331663
aI19078857
aI15170595
aI19255970
aI33021773
aI69916157
aI53286492
aI15255872
aI26333956
aI288737120
aI128091121
aI26418886
aI90878243
aI15025786
aI53038229
aI288679027
aI71536991
aI196844120
aI13578552
aI25386700
aI25037918
aI243768365
aI16246715
aI1114851
aI95554245
aI59297523
aI14778929
aI8631502
aI157712830
aI136052352
aI285598001
aI283550539
aI25001675
aI241545397
aI30491827
aI287791013
aI77319557
aI7976472
aI45353804
aI234922335
aI67350076
aI246894912
aI8650472
aI275672431
aI191671526
aI150674336
aI1173431
aI15850273
aI280906910
aI83550059
aI286548991
aI22563838
aI16963456
aI2574631
aI234854154
aI20328308
aI192015241
aI286250672
aI257926670
aI8500162
aI252508174
aI6085332
aI23583389
aI6521142
aI48925466
aI32701163
aI190832591
aI22935521
aI132131120
aI258759672
aI82832602
aI280222919
aI9986412
aI163180973
aI49084636
aI20448713
aI194714190
aI182332555
aI17340439
aI214101464
aI239733888
aI8018512
aI35660440
aI89812325
aI18297207
aI83091807
aI210542691
aI284670085
aI284613588
aI17462590
aI215224136
aI155402517
aI115660120
aI282587252
aI81081291
aI284032179
aI284455277
aI27595669
aI183568178
aI267425135
aI263690279
aI190139361
aI16019997
aI138152139
aI220714391
aI202593278
aI138771029
aI272774963
aI25866236
aI18211808
aI219074894
aI191143390
aI96032454
aI283203990
aI22462234
aI268936666
aI282929714
aI95194124
aI76784104
aI25731215
aI14462960
aI16683890
aI162013498
aI15434170
aI15500990
aI155025456
aI82394621
aI66875651
aI179798503
aI29849735
aI176179650
aI29613272
aI254961627
aI97223474
aI280560127
aI105036243
aI261551329
aI14707208
aI22629696
aI703013
aI47094042
aI85182269
aI49954528
aI14851579
aI17285120
aI19122388
aI281001153
aI274668473
aI184054900
aI182096189
aI134629412
aI23716830
aI108160821
aI76952978
aI123947006
aI40513354
aI61298730
aI280848274
aI259931985
aI60487132
aI69135637
aI25804961
aI49581184
aI87931350
aI54176159
aI280547007
aI169442466
aI70752057
aI280229070
aI23058173
aI277456127
aI28654709
aI16955908
aI76614199
aI38627068
aI75236148
aI14964338
aI17285285
aI35819412
aI113160881
aI17665295
aI257541756
aI137411126
aI90325372
aI34652909
aI274246142
aI170138339
aI245856674
aI33233210
aI277427326
aI6566022
aI16621280
aI19769253
aI167581366
aI15549922
aI75568470
aI54044485
aI15799148
aI95223739
aI34605649
aI267990900
aI32758316
aI278925770
aI257676137
aI106099584
aI175072843
aI279223993
aI274208765
aI115136462
aI32333941
aI90446175
aI15105273
aI273613278
aI16223636
aI14763871
aI81813592
aI27638550
aI262563988
aI278451995
aI219187844
aI268482978
aI250958693
aI256355367
aI27605550
aI275651649
aI276906430
aI19608933
aI277934199
aI27194319
aI17702207
aI38020104
aI33361196
aI274646304
aI39621239
aI19395736
aI165018015
aI14443013
aI273925343
aI154003708
aI17601319
aI6269142
aI29631208
aI81177495
aI19249236
aI21153353
aI254112190
aI263853744
aI45590921
aI29220471
aI23326159
aI276897826
aI20858696
aI212008395
aI45190727
aI25619736
aI14819353
aI15119184
aI275161275
aI240381765
aI51741657
aI14178792
aI55539822
aI162074815
aI62262627
aI21257297
aI21764364
aI3307471
aI222656798
aI190250331
aI43214504
aI159566579
aI15937583
aI138772375
aI19183316
aI174792159
aI275429044
aI274662596
aI21722796
aI44471950
aI23285467
aI19021414
aI273806260
aI253065825
aI17357850
aI210827476
aI254589404
aI125824211
aI270429448
aI20049687
aI18987723
aI64253306
aI80093698
aI21146494
aI269903119
aI29498915
aI198246525
aI13419792
aI18748260
aI24262207
aI255396361
aI274165800
aI7079752
aI26105679
aI214305352
aI268634290
aI111579941
aI141211559
aI185890259
aI16039286
aI107179970
aI184463752
aI255545702
aI133291690
aI77079533
aI158639243
aI76849982
aI102519011
aI250336983
aI17492983
aI271083406
aI52762937
aI216713104
aI130177716
aI44375187
aI29165276
aI116359210
aI136577048
aI250623589
aI50288857
aI109090635
aI72538726
aI17224150
aI272704821
aI268469405
aI58803309
aI23983
aI65309169
aI26213095
aI118331219
aI250245627
aI266523874
aI19987338
aI69544139
aI263743656
aI24439532
aI228913063
aI88930986
aI272065750
aI22851759
aI9434532
aI1724831
aI43171406
aI269730774
aI17697297
aI19387073
aI272021034
aI52738464
aI190891255
aI29166229
aI35434397
aI6016352
aI192171500
aI9800672
aI14136107
aI759467
aI224300326
aI22629659
aI6378062
aI110775589
aI17395971
aI73426737
aI15034894
aI169445158
aI24947095
aI27022837
aI123352888
aI271101910
aI9632722
aI124210783
aI16942144
aI118742243
aI29334343
aI7418832
aI21992739
aI163747086
aI185343217
aI23047592
aI131577129
aI63777673
aI40331622
aI228529895
aI125257226
aI270853394
aI168644264
aI6284412
aI15667345
aI252152644
aI9307672
aI183520275
aI56928911
aI270725216
aI87959045
aI18394540
aI32052434
aI270428792
aI250255133
aI115921403
aI19537241
aI26483894
aI20802755
aI84299872
aI15150706
aI121686912
aI14846611
aI270043040
aI17004180
aI191775325
aI107434143
aI102768630
aI17010119
aI253036048
aI171685142
aI122445081
aI218277991
aI269407486
aI54210940
aI61310227
aI261401405
aI256719790
aI268454018
aI104813238
aI230004498
aI14063033
aI182275195
aI60259585
aI252573639
aI255243642
aI46884215
aI268477105
aI243260429
aI18395343
aI268376439
aI36422534
aI199803094
aI268271554
aI101035041
aI233520554
aI25813529
aI21929267
aI268168229
aI156469547
aI6636812
aI190205219
aI25471138
aI56958692
aI35998430
aI25516832
aI66311630
aI2214551
aI94468870
aI19740864
aI19625196
aI168174065
aI266035407
aI15056099
aI130208701
aI158865339
aI25247250
aI247851406
aI267036792
aI15436941
aI165263417
aI24923397
aI195845596
aI217709776
aI16469900
aI17466898
aI16293467
aI51025671
aI264171871
aI37719734
aI47340454
aI14448221
aI723963
aI17959807
aI128514372
aI16799967
aI258927409
aI93051616
aI9651
aI153829592
aI157884799
aI228340278
aI16259079
aI265064826
aI130719207
aI5313442
aI14943630
aI133255970
aI97959265
aI8359462
aI9102552
aI23186390
aI92114641
aI20620307
aI24582955
aI260925535
aI56382250
aI259269362
aI47918605
aI182476013
aI44698296
aI20417919
aI17633424
aI38224286
aI43887384
aI14283650
aI33997377
aI143188300
aI261583584
aI17024589
aI17085380
aI244395669
aI131236335
aI81685797
aI47767412
aI119472529
aI18808633
aI107268691
aI81059521
aI30421496
aI161214370
aI235197614
aI103626771
aI18030890
aI140530668
aI27618368
aI246808609
aI209905792
aI23012285
aI16256492
aI46392524
aI64796545
aI37204335
aI42721673
aI175400503
aI14832003
aI189286763
aI31295446
aI245862206
aI18310761
aI40616405
aI23317969
aI84765482
aI247659356
aI261678551
aI60422280
aI53723
aI14588071
aI18429803
aI16011096
aI149806281
aI57313024
aI14749258
aI55309598
aI116578488
aI92488061
aI234723547
aI255779321
aI253586101
aI11782222
aI25872601
aI1872441
aI19302550
aI236765919
aI154537898
aI5372812
aI124901561
aI637423
aI119354768
aI76742061
aI49093210
aI24353834
aI102551385
aI224022788
aI257917951
aI187797079
aI160525191
aI110631329
aI11158722
aI121067923
aI93954330
aI14872495
aI58040797
aI148076857
aI149303
aI224836073
aI14535099
aI14940554
aI18557906
aI113312820
aI5659882
aI129542656
aI249103006
aI177916912
aI6314782
aI89992632
aI258483142
aI18636128
aI20480285
aI171362336
aI20211047
aI21339355
aI16640997
aI47881234
aI3171031
aI125287705
aI19142308
aI14338436
aI18136972
aI15089764
aI149096517
aI17276138
aI15106446
aI56637413
aI14282328
aI21026429
aI17309030
aI16384479
aI12754182
aI7639062
aI41249189
aI17141868
aI140805063
aI128624235
aI14236831
aI182821975
aI36711524
aI198889561
aI197881811
aI23438220
aI191783962
aI59794575
aI237440969
aI69690005
aI115395081
aI28446287
aI62529562
aI237296407
aI22525155
aI18002812
aI18819283
aI125459547
aI91056925
aI31708731
aI16313140
aI10449
aI76647312
aI165944285
aI26765003
aI19481908
aI143380780
aI218669465
aI153785091
aI14880509
aI17654627
aI105777706
aI94204374
aI30024193
aI14320864
aI16346665
aI5900412
aI28817327
aI248932986
aI154466828
aI231272953
aI25264158
aI105494343
aI255961894
aI14335761
aI204676164
aI20327399
aI239362738
aI139011730
aI18098420
aI43837394
aI21034112
aI19086187
aI10662112
aI56408363
aI20357033
aI256450524
aI175518718
aI66470035
aI18444155
aI16671891
aI15501058
aI9128622
aI115091048
aI15906950
aI14493044
aI117402535
aI25279707
aI14279058
aI12096842
aI143449579
aI37622738
aI255862991
aI101198858
aI13716292
aI22853750
aI21112137
aI199395539
aI250631380
aI152407334
aI16708593
aI21280363
aI255537420
aI112482451
aI181459072
aI18364366
aI135021570
aI249056396
aI215000796
aI255025373
aI170292765
aI48730357
aI38254620
aI254733155
aI6675992
aI7601962
aI254037285
aI26533230
aI254645956
aI52153068
aI24777517
aI244729079
aI13599852
aI229175930
aI84981159
aI14258599
aI14351818
aI225307244
aI84942660
aI249688395
aI69289911
aI25717825
aI168994921
aI242538327
aI17531149
aI204774206
aI84813953
aI18048554
aI186256832
aI153516779
aI106254170
aI127426804
aI15153807
aI102148038
aI47923357
aI215234661
aI178542654
aI253174596
aI5732242
aI16867523
aI80608487
aI55021457
aI7056172
aI28455701
aI217363629
aI153505835
aI253454502
aI62220085
aI145900486
aI252525746
aI14051573
aI99550003
aI120054677
aI5878332
aI233345460
aI23772560
aI168530648
aI22357049
aI16243617
aI20525952
aI35187101
aI13103952
aI111027468
aI202485159
aI105018948
aI18358142
aI188488919
aI199804062
aI142829909
aI51009980
aI14920137
aI139064083
aI251346758
aI43356418
aI245215269
aI166371363
aI215929208
aI54807831
aI249925885
aI240283047
aI15321532
aI15835047
aI18212623
aI112422039
aI17445236
aI58964711
aI226397625
aI10272082
aI18227314
aI236804077
aI18891667
aI170630246
aI222247162
aI103946337
aI64734371
aI219010097
aI51296023
aI161158926
aI40275591
aI6823832
aI52071913
aI211584638
aI19542840
aI19146556
aI14053887
aI198661893
aI229405971
aI14452248
aI17489343
aI16553194
aI20662850
aI213777589
aI18389551
aI225568891
aI240249848
aI126500774
aI27692585
aI43819138
aI161470473
aI247958621
aI114582781
aI27708768
aI16075694
aI48306605
aI45602660
aI19768706
aI68789527
aI10584592
aI1679201
aI33857735
aI112566218
aI163967874
aI796627
aI5043031
aI24476714
aI247243097
aI247334114
aI20467562
aI147945143
aI34388043
aI28465713
aI754524
aI59521161
aI177994454
aI17069685
aI17464946
aI49550308
aI18795876
aI66938883
aI203808127
aI248511165
aI242948774
aI108523679
aI34867337
aI87906268
aI217299698
aI15316660
aI116659519
aI38361383
aI177469616
aI56806916
aI89524155
aI6313372
aI46632431
aI42889683
aI59041707
aI247459947
aI14688344
aI9186102
aI210188883
aI220
aI78599173
aI29417312
aI175282603
aI39330158
aI101607337
aI91164847
aI169010789
aI16916978
aI20693089
aI17456106
aI155623401
aI106546209
aI6130932
aI2341001
aI14384606
aI72085677
aI128510560
aI241867055
aI155709872
aI56087436
aI64538171
aI157452081
aI16199914
aI14881287
aI38139283
aI17941100
aI15782493
aI245413137
aI28615252
aI112523908
aI10862692
aI18005444
aI15259965
aI14241675
aI237410643
aI120819307
aI80055467
aI23487518
aI15054134
aI7736302
aI114465049
aI21219157
aI15148645
aI76270861
aI20030894
aI14820257
aI40015827
aI15651883
aI143108397
aI15762005
aI176772134
aI110255597
aI244322551
aI50407802
aI152211710
aI17160156
aI33462080
aI18107306
aI78344217
aI118527772
aI54479483
aI77251094
aI9181042
aI15078660
aI19543146
aI7130022
aI28022415
aI188484995
aI17526001
aI244448863
aI51723037
aI48569043
aI26055096
aI218682668
aI62470349
aI114573522
aI22046474
aI240395670
aI112778568
aI14503584
aI12089422
aI91631675
aI16476829
aI24171316
aI26511175
aI109925181
aI98702997
aI20685061
aI239066093
aI229931954
aI90861254
aI37730387
aI170366803
aI7129072
aI20395134
aI13856022
aI14803842
aI43138656
aI176524191
aI43050934
aI15443946
aI16102620
aI61976549
aI2930931
aI243222887
aI806323
aI91779542
aI8531352
aI66960209
aI16623088
aI81932201
aI233113121
aI110267581
aI19312211
aI18503318
aI68888256
aI241166922
aI40249032
aI39104833
aI240949026
aI19790588
aI15769318
aI9438632
aI240123772
aI12077452
aI19871716
aI212583860
aI13009972
aI220816720
aI19443429
aI1376981
aI225927908
aI110565505
aI137938634
aI237224166
aI126314589
aI222362645
aI180614745
aI241639474
aI74555830
aI47668517
aI6705042
aI127206411
aI23826791
aI39234392
aI163182231
aI109589683
aI230351260
aI46826529
aI136890108
aI144151746
aI28767639
aI235417259
aI10147732
aI75829136
aI231407669
aI40177792
aI25850442
aI11069462
aI164565148
aI12678392
aI14307809
aI15229161
aI171493652
aI207389112
aI24163181
aI228019587
aI45458926
aI34298324
aI25710107
aI236078429
aI35450534
aI29987299
aI19589054
aI19417672
aI18424651
aI15832211
aI17540721
aI15131304
aI14423788
aI240089897
aI23626240
aI153484940
aI59053661
aI237391037
aI19675056
aI65891826
aI53028535
aI7938262
aI4611791
aI239285481
aI16872682
aI236781440
aI187217386
aI50199062
aI4211691
aI16166091
aI183234941
aI88674736
aI35145187
aI192723784
aI54813914
aI199171050
aI236810939
aI56828602
aI24858030
aI752863
aI14630187
aI235198811
aI57821848
aI5897202
aI13569322
aI143739954
aI16167957
aI86510018
aI66669491
aI156057306
aI105799276
aI49640697
aI80645304
aI56651527
aI149512094
aI14334974
aI26961746
aI2275611
aI162710810
aI18541639
aI209797976
aI5683432
aI8016722
aI16297947
aI230194663
aI117945364
aI237517130
aI18139958
aI15172343
aI112684712
aI216080013
aI175834720
aI159462573
aI14506568
aI11827872
aI33267871
aI237010735
aI231859789
aI86958857
aI42393602
aI58402172
aI142251330
aI14898705
aI110775269
aI35564555
aI55789354
aI55294307
aI192073829
aI224568034
aI236562313
aI703673
aI218552393
aI115788512
aI51429062
aI229483259
aI207684394
aI15634313
aI16097719
aI47154867
aI205360168
aI234798941
aI14885927
aI15751438
aI235673666
aI92067884
aI74816529
aI234101468
aI16194052
aI225459684
aI71317357
aI14515442
aI121888904
aI42660690
aI1199441
aI52793033
aI235261861
aI233844312
aI235134204
aI33556843
aI23879477
aI233629413
aI42954399
aI21803473
aI16203287
aI11984292
aI55212399
aI51008307
aI234481541
aI7006762
aI43867278
aI221401534
aI76263016
aI32385134
aI83672576
aI14490173
aI61729866
aI26571599
aI2829741
aI113305345
aI22031507
aI202778075
aI21534699
aI20528408
aI46589671
aI15720449
aI234161874
aI21975437
aI68360051
aI16389046
aI125289724
aI136156943
aI123568198
aI29501078
aI27025596
aI75076981
aI127556162
aI55674581
aI5508322
aI231504109
aI122051538
aI76056534
aI84163457
aI18928865
aI17062678
aI7440872
aI20198135
aI103842001
aI22644059
aI167741439
aI222593636
aI77789889
aI233174651
aI233161671
aI14627581
aI149129001
aI34204110
aI14204302
aI121217488
aI18498141
aI16091159
aI19940078
aI23021609
aI16213543
aI207823889
aI25842397
aI232184234
aI152608552
aI102807948
aI6119492
aI117215462
aI14082800
aI15737730
aI15996527
aI3747211
aI2442871
aI172502222
aI31003176
aI222564884
aI37194325
aI1253451
aI16214605
aI202352603
aI34587969
aI17395134
aI17162772
aI230581085
aI41145894
aI231379016
aI157744078
aI74678526
aI67113106
aI16264427
aI24510537
aI20037561
aI8711952
aI15744745
aI173162846
aI167756131
aI17976608
aI11287862
aI58905743
aI7150152
aI92653935
aI17975254
aI48647290
aI67074107
aI14175796
aI216082969
aI48005477
aI195808027
aI153625503
aI42907401
aI17464297
aI14228586
aI31918323
aI227466382
aI14590971
aI41015281
aI212520916
aI88982623
aI15704208
aI123221277
aI135870096
aI18358699
aI9539032
aI779467
aI8123032
aI8769202
aI16949344
aI44153497
aI55046230
aI52346422
aI194016960
aI214423547
aI52406611
aI12564882
aI30021646
aI147512970
aI23558652
aI225831352
aI42505687
aI214222119
aI107309929
aI227842401
aI184602659
aI227097331
aI212810711
aI61454762
aI3646551
aI16302188
aI124537328
aI20471660
aI20486435
aI227245143
aI17730836
aI6186362
aI19590067
aI21813609
aI69410972
aI202876968
aI9022912
aI54050079
aI85725054
aI8956042
aI223606535
aI158446462
aI25220410
aI17627909
aI1509581
aI15794480
aI183357457
aI54788968
aI51390558
aI195187352
aI226317053
aI4064441
aI150198149
aI62016822
aI218617356
aI208019003
aI164627125
aI19119958
aI224783968
aI18146790
aI185987453
aI136185589
aI209530808
aI112418035
aI34546291
aI220180937
aI220839103
aI10515762
aI14198302
aI1060381
aI646043
aI39241399
aI61862590
aI223237344
aI28310006
aI40142694
aI14708556
aI113791449
aI217790186
aI2654
aI34957686
aI11478472
aI34251233
aI224270138
aI15537374
aI3332271
aI217153495
aI82682518
aI18723796
aI69920424
aI17602766
aI14699196
aI133627753
aI223593509
aI190949289
aI56673753
aI65362661
aI201413666
aI218512553
aI64146543
aI125806159
aI75370791
aI79106049
aI155494782
aI219312934
aI28399978
aI17986360
aI191809617
aI13182922
aI20832604
aI9487372
aI15364747
aI15307236
aI12091
aI70805899
aI216142312
aI218953214
aI46465278
aI179150149
aI219329876
aI55807556
aI81956722
aI18589214
aI18604681
aI182949653
aI21416746
aI11493602
aI4134711
aI215808140
aI19421357
aI98592892
aI14281672
aI176865497
aI222073784
aI165914129
aI27606019
aI207253190
aI30838560
aI47677745
aI110937250
aI201909697
aI16809315
aI221741796
aI135601675
aI129361396
aI43316429
aI215982792
aI98654085
aI15580172
aI105572338
aI50387337
aI178157297
aI84642699
aI72971662
aI3345261
aI7662752
aI107340711
aI75709275
aI9676812
aI19557049
aI219997390
aI155830874
aI200048213
aI154004773
aI207357046
aI128137476
aI14221332
aI86139446
aI80134617
aI20924970
aI18999322
aI125453378
aI124512688
aI178677673
aI24564000
aI40664532
aI47654936
aI22453334
aI21093947
aI25311558
aI18569041
aI220919800
aI220913321
aI15756049
aI22801678
aI175468439
aI17062696
aI18871154
aI17051103
aI80830161
aI124482828
aI38891608
aI154167562
aI4909001
aI39210065
aI208520764
aI18763414
aI195031531
aI19429170
aI189837618
aI18874859
aI21303517
aI24859494
aI15907294
aI87482053
aI18193038
aI19015593
aI15328134
aI17626004
aI216169838
aI165795455
aI22463304
aI219461007
aI12681102
aI14848921
aI113392197
aI23972269
aI8398942
aI171917092
aI219303786
aI18876718
aI217341459
aI81070275
aI198613941
aI34691957
aI15779500
aI91871851
aI198822847
aI27222149
aI14322697
aI199006829
aI14061434
aI218487921
aI166581905
aI13077202
aI81044602
aI214205260
aI413703
aI27113859
aI20838871
aI20840121
aI218125113
aI21814139
aI28952347
aI189572009
aI139967915
aI22770218
aI23331373
aI175771463
aI215458867
aI129842864
aI195199325
aI23872579
aI214146599
aI16626841
aI217161154
aI10027342
aI113009949
aI209909446
aI18379580
aI87680819
aI13319932
aI217013332
aI207940830
aI28645968
aI81180050
aI82853471
aI170064983
aI16032138
aI56909646
aI216762102
aI9458032
aI172326476
aI18588693
aI214851033
aI14961286
aI3682351
aI158533414
aI7322532
aI29194622
aI14783267
aI148523887
aI192874409
aI213301220
aI38427459
aI8660772
aI1672821
aI130941232
aI22659413
aI137950194
aI42016920
aI8081962
aI87840151
aI7876112
aI147954248
aI46659029
aI37320381
aI130580661
aI108770046
aI12108822
aI12958582
aI93163343
aI20424264
aI35875162
aI179504719
aI58742447
aI97521566
aI18733320
aI66387365
aI214488634
aI32910592
aI14482344
aI1477811
aI183436086
aI212835055
aI24851292
aI77604824
aI151125026
aI103195583
aI73364282
aI47355533
aI210120643
aI184815567
aI6163562
aI142001011
aI214022439
aI22754999
aI91194520
aI212222864
aI193379053
aI199802218
aI19385997
aI75428579
aI6595182
aI37852596
aI13020572
aI72020326
aI24254691
aI150670973
aI195037666
aI27012495
aI49388588
aI10166112
aI22915242
aI80514648
aI9333432
aI14232492
aI89569649
aI177592602
aI14957812
aI80365190
aI12370062
aI58481976
aI206371772
aI12082002
aI148637542
aI192173019
aI19148564
aI18429355
aI97451914
aI54564771
aI44581764
aI15458767
aI22523158
aI202156388
aI99861723
aI209367145
aI19256595
aI209496329
aI161496262
aI51743919
aI49477360
aI14812429
aI17709630
aI210630426
aI21512528
aI12806092
aI151041797
aI21945870
aI20624636
aI23290685
aI14694707
aI199736003
aI170798069
aI16335529
aI65014375
aI15096034
aI22467900
aI34247967
aI170088338
aI209313694
aI15317854
aI11842742
aI17237547
aI13388922
aI33984231
aI74689780
aI174694858
aI7764212
aI24204618
aI116887372
aI170853754
aI207709512
aI30892912
aI136996366
aI83898645
aI8039132
aI139730215
aI30039110
aI122995301
aI56465172
aI13182002
aI48799489
aI14395457
aI101496282
aI74038003
aI195650596
aI14104031
aI91262010
aI26590797
aI868651
aI160666061
aI2801571
aI52319122
aI179842201
aI26457494
aI15265299
aI14787157
aI15808288
aI660623
aI198282398
aI119057431
aI15736851
aI96175320
aI11407582
aI160982774
aI31161322
aI88478949
aI39634559
aI13398232
aI45463
aI16165168
aI14560413
aI91822016
aI48382387
aI45129527
aI24082716
aI19110185
aI19075001
aI131254732
aI203661336
aI204336941
aI202443126
aI118687821
aI22463262
aI15822273
aI201793623
aI151913605
aI86987355
aI104960612
aI172431472
aI196971832
aI9121482
aI79191011
aI9216662
aI185163839
aI58394316
aI16868154
aI16404566
aI18437210
aI90559958
aI45579201
aI15089854
aI15816673
aI56506109
aI186371824
aI85604347
aI163326445
aI15036555
aI135934255
aI201681148
aI30552876
aI11537782
aI54453816
aI12019042
aI14853276
aI21952265
aI182437762
aI62518301
aI35088894
aI22318272
aI11891552
aI14353952
aI113823968
aI15437315
aI13934292
aI14940963
aI21599056
aI124210587
aI203699034
aI13590642
aI12464142
aI24629456
aI108317447
aI9595612
aI193076976
aI68300107
aI19721100
aI14047659
aI109980164
aI119055102
aI93256809
aI166568776
aI88662903
aI20296201
aI154988358
aI18294225
aI26075523
aI197833399
aI201337422
aI41064882
aI37922200
aI192490921
aI186840037
aI93271031
aI198652288
aI139888868
aI190055557
aI34003
aI162017307
aI40210056
aI143131630
aI200868169
aI43563436
aI14709457
aI102789982
aI201369849
aI15210940
aI16366760
aI173210132
aI30721392
aI120933448
aI123442206
aI19658474
aI33262947
aI196229253
aI137438885
aI14347165
aI195442002
aI101656696
aI150269633
aI97277450
aI188469209
aI16424374
aI27607791
aI198424540
aI14575714
aI34546802
aI17293996
aI199595517
aI105746112
aI166368934
aI13080512
aI60115089
aI170970639
aI9940062
aI199645867
aI159458403
aI99041695
aI96363936
aI199584325
aI110633229
aI98627717
aI70852008
aI105875004
aI145824935
aI146568581
aI69540547
aI17328383
aI198673231
aI14094253
aI198831565
aI68158263
aI176436871
aI82573439
aI20509167
aI36134036
aI138839289
aI189200442
aI9585442
aI16946467
aI9975442
aI14141553
aI29445350
aI16553392
aI190441048
aI98597510
aI29726735
aI11091782
aI11890912
aI19350589
aI18155143
aI155110552
aI14604381
aI15616564
aI104009119
aI137677992
aI181360417
aI25607675
aI20989994
aI196448415
aI74760859
aI155686731
aI25961837
aI56467078
aI9147972
aI23058335
aI14354302
aI144571926
aI33934793
aI61078014
aI22060089
aI196249045
aI31416529
aI2934781
aI9513842
aI167960058
aI5910162
aI60414748
aI5661312
aI196096878
aI195976611
aI19123598
aI15662680
aI174237019
aI20953997
aI194963778
aI15241186
aI159787791
aI6079322
aI38520673
aI190729733
aI195762101
aI17706696
aI5491
aI42034001
aI14054081
aI2183201
aI4046771
aI14814605
aI14273550
aI16318891
aI187166453
aI33014642
aI104593954
aI148293826
aI155989320
aI175820585
aI54952368
aI143894114
aI194710223
aI16626758
aI194600509
aI75081749
aI59834599
aI14060851
aI111346732
aI164622781
aI101921267
aI194180555
aI23281212
aI63422022
aI23970898
aI17680827
aI104355099
aI48774104
aI57835688
aI135136090
aI189442765
aI142544592
aI17306464
aI3066401
aI180685558
aI818775
aI181480120
aI129255562
aI192927713
aI1731871
aI17834674
aI11007422
aI2684321
aI15396323
aI47596013
aI11686652
aI44687734
aI83196931
aI16627335
aI156795640
aI12759242
aI191897098
aI70670174
aI16068252
aI15870561
aI16338591
aI49925575
aI43765046
aI185802688
aI75066258
aI163887841
aI182353102
aI15272897
aI44969806
aI676043
aI15377617
aI15367465
aI46060582
aI36625618
aI41869058
aI39484301
aI14943245
aI180447708
aI17128873
aI16956614
aI9612722
aI129940666
aI19165978
aI76356624
aI76395009
aI105223207
aI34621902
aI15980230
aI78001282
aI28478428
aI154297160
aI42635524
aI158103384
aI49772946
aI51481289
aI14613637
aI189615327
aI17829662
aI175156725
aI18494292
aI10882262
aI21998733
aI77062167
aI18134893
aI5848122
aI188925160
aI14375188
aI15841495
aI20355043
aI32134019
aI14924256
aI14790680
aI42228967
aI76212822
aI47740113
aI18072090
aI139155428
aI156648573
aI17363593
aI21182674
aI46402649
aI5505252
aI14767481
aI5792052
aI187302000
aI146181710
aI17581794
aI14376840
aI15714547
aI187599507
aI22503204
aI14148881
aI143829834
aI15109520
aI123219258
aI41134794
aI20492784
aI131799793
aI28475376
aI15323921
aI116450552
aI15010721
aI10832152
aI7600692
aI14904726
aI15280906
aI17856201
aI18735038
aI186270361
aI18455643
aI17106917
aI17490467
aI26752783
aI44652339
aI93008749
aI17575414
aI17527655
aI14573591
aI58719007
aI39723413
aI68139427
aI15922777
aI138768192
aI19137660
aI18259909
aI28810028
aI119628815
aI19349094
aI59366427
aI14497441
aI5993652
aI55505352
aI9527422
aI143184302
aI41698792
aI130251605
aI9104532
aI163552103
aI117299183
aI90972898
aI86037038
aI172871431
aI21290360
aI38274886
aI2057051
aI20547679
aI106588607
aI21180103
aI179336473
aI123667924
aI96112801
aI131661888
aI49728765
aI37253791
aI11988782
aI87062993
aI15799169
aI17680741
aI13960962
aI183718299
aI76599209
aI35668812
aI129829851
aI38209959
aI182928122
aI16419922
aI14654115
aI85110421
aI15093118
aI11613
aI9864992
aI76621801
aI171554231
aI182868423
aI68533893
aI50694051
aI52322622
aI119704541
aI64702047
aI37619391
aI13265312
aI16901501
aI177878150
aI177517631
aI177144856
aI182167438
aI12160482
aI19035215
aI23241673
aI25670172
aI61537694
aI180533618
aI18753446
aI8628612
aI15634619
aI148185884
aI54617646
aI167169119
aI98945133
aI44651104
aI91947740
aI19704593
aI110692743
aI89561778
aI44668115
aI87455079
aI80393
aI139640340
aI84175869
aI8833012
aI6491312
aI15202364
aI20299564
aI17437747
aI140022669
aI163513476
aI177499880
aI137092925
aI13734322
aI62994198
aI77066603
aI31223340
aI39981605
aI103807191
aI43862355
aI3137111
aI135343953
aI184693
aI17612086
aI21955383
aI18935096
aI178640764
aI14997923
aI24987347
aI15617511
aI74773433
aI115076766
aI101710044
aI161971899
aI25388528
aI16866240
aI17245979
aI177551168
aI43813
aI46647731
aI18544067
aI116342475
aI14418528
aI1282391
aI87008121
aI10311192
aI41004030
aI55218817
aI22131182
aI18023216
aI168288744
aI11552002
aI14903670
aI172097204
aI168449725
aI20834739
aI5831052
aI26037368
aI8230462
aI17285940
aI15979312
aI23213692
aI15064646
aI22575397
aI52671700
aI19555309
aI175607214
aI24993058
aI5825002
aI29996806
aI110164890
aI5720892
aI153811467
aI14306109
aI175939583
aI19165254
aI3584721
aI145846624
aI47396544
aI97564873
aI88113590
aI11773852
aI22640332
aI33671306
aI93845265
aI18800360
aI8094892
aI8333032
aI21931422
aI16174436
aI168358647
aI148321840
aI175156782
aI53701469
aI47372144
aI145077865
aI75115601
aI117376254
aI3744021
aI16535847
aI19286705
aI57459305
aI107622264
aI63245412
aI172482994
aI23820393
aI14282261
aI53227554
aI12341252
aI22045078
aI16956859
aI15575841
aI21777017
aI162735476
aI19735470
aI161263001
aI14321720
aI171616016
aI77697619
aI164970595
aI54492524
aI30010708
aI17452642
aI75936332
aI7838702
aI804998
aI156986910
aI77524565
aI173097010
aI172330678
aI162423424
aI24800648
aI172191171
aI135998724
aI17806145
aI167502964
aI15854937
aI9391142
aI122451753
aI1293051
aI18100271
aI10630
aI15747971
aI169219671
aI54190209
aI103053609
aI57342810
aI58428948
aI22420542
aI18503214
aI27703956
aI89946968
aI123011914
aI19490349
aI803106
aI26574543
aI103547618
aI6246732
aI16024466
aI167555219
aI14995228
aI5717752
aI167755005
aI107506494
aI162113893
aI164259315
aI15965828
aI28624297
aI113645832
aI122591026
aI168769576
aI166790445
aI158498198
aI14283963
aI81959131
aI56845763
aI142313714
aI166143030
aI66426435
aI166579891
aI39089241
aI109930576
aI66507080
aI127465086
aI15861321
aI164813081
aI21922529
aI73497420
aI164786646
aI20429539
aI69766590
aI14986740
aI16923713
aI17430158
aI21403123
aI1314101
aI64409134
aI97767010
aI73011896
aI19543090
aI52123243
aI14427115
aI39028137
aI160866137
aI165733222
aI164621873
aI26775327
aI86184532
aI22661564
aI122431967
aI16286820
aI5503972
aI4878101
aI772136
aI85529946
aI12957902
aI26119568
aI163418861
aI25289356
aI41581896
aI35298613
aI78813985
aI112637666
aI47285758
aI9311252
aI21773148
aI64896160
aI26640584
aI156003871
aI16342015
aI133877188
aI36323576
aI106730996
aI160478238
aI41707769
aI7169502
aI7670482
aI162751598
aI160300894
aI83627692
aI21168545
aI17994615
aI148733048
aI152903709
aI30939244
aI7860992
aI33881993
aI161084512
aI27631929
aI16137714
aI7521742
aI15481460
aI81593533
aI144783138
aI24163547
aI14188895
aI156863053
aI698343
aI55866366
aI18082561
aI21292221
aI17132783
aI146250763
aI20213363
aI27421917
aI12688902
aI58923178
aI123038440
aI18445360
aI140294179
aI54895766
aI14200335
aI50763255
aI71897900
aI10139002
aI157958919
aI21088973
aI814304
aI20042537
aI18593098
aI17780238
aI123674563
aI149337312
aI56477271
aI113034914
aI9475242
aI10034142
aI158654504
aI15655638
aI96595157
aI20909745
aI16973997
aI128392222
aI17385300
aI6886472
aI96232404
aI13714642
aI15305306
aI15495544
aI17156081
aI59802972
aI14935040
aI19961700
aI141299037
aI14957101
aI42955385
aI53223628
aI139934772
aI115442828
aI139999000
aI30837331
aI15481982
aI155725016
aI115564035
aI153231275
aI18120993
aI95657733
aI15540118
aI23691745
aI18495826
aI24160604
aI121442539
aI21663551
aI10481372
aI14414900
aI147355067
aI31545866
aI635833
aI147685405
aI56899270
aI87640380
aI112661939
aI124863512
aI60535775
aI15557640
aI33561004
aI14769744
aI18944689
aI153750184
aI42430077
aI56663709
aI5539482
aI39551983
aI120365570
aI122141705
aI117773905
aI20743
aI21476438
aI17533464
aI19498718
aI137274617
aI8266912
aI126625621
aI82232226
aI14403554
aI21639801
aI13783772
aI150567785
aI107413312
aI17614775
aI148307882
aI82149140
aI14661678
aI39614203
aI4037751
aI14717845
aI138354313
aI7382162
aI14108865
aI31667985
aI19383820
aI32469549
aI91194752
aI20401408
aI149913647
aI148310142
aI11990112
aI16301841
aI55590697
aI105657627
aI9663162
aI87012252
aI98475166
aI115724548
aI16724540
aI12594422
aI17131238
aI45329660
aI17686433
aI6795412
aI46609733
aI118109509
aI26517372
aI14532029
aI126270212
aI8277692
aI30301254
aI24378665
aI43141694
aI16038123
aI2674
aI18114482
aI128137964
aI142389365
aI146101182
aI49293393
aI129011412
aI74164064
aI16309279
aI145885083
aI14485624
aI19603444
aI10758652
aI10722012
aI40846607
aI81795201
aI10447962
aI118957612
aI14422979
aI29372017
aI74197167
aI39755145
aI33178160
aI41447827
aI18835684
aI27402857
aI10947902
aI144536566
aI76431330
aI59959919
aI25461440
aI143500968
aI41199192
aI60063
aI20289366
aI6896202
aI96728670
aI38013502
aI43764834
aI65519038
aI68495637
aI110612130
aI3522
aI95028555
aI15562593
aI77929609
aI70502882
aI128077602
aI143213562
aI17420265
aI108916383
aI14064983
aI49173787
aI20365606
aI19567470
aI15866250
aI54500322
aI5629062
aI43861703
aI105515071
aI142185097
aI82630211
aI26369266
aI116498872
aI18173395
aI94541935
aI29240863
aI120166541
aI68365570
aI608703
aI14981723
aI23023641
aI14574091
aI29654120
aI4046891
aI28793897
aI70137703
aI19843826
aI67599259
aI15634438
aI59939284
aI19111152
aI15520114
aI28607619
aI85932799
aI16730654
aI83763915
aI112463119
aI19289985
aI16241893
aI110203239
aI40545401
aI28533619
aI60296726
aI28597801
aI59111276
aI18736914
aI136629876
aI17171332
aI15429623
aI10112372
aI15243869
aI12090232
aI80853646
aI16278224
aI62388238
aI42287088
aI105914983
aI127725002
aI9800542
aI21319122
aI102423503
aI138224884
aI139818406
aI28110332
aI1696
aI76671280
aI19520716
aI14824562
aI707203
aI80351672
aI32412224
aI106494695
aI17938160
aI23156803
aI85434463
aI131829888
aI9402162
aI98986664
aI6089982
aI18065064
aI39274382
aI15750194
aI18739541
aI18285413
aI79389301
aI14142099
aI62596344
aI55953919
aI137954610
aI4426701
aI137736329
aI116800883
aI17033258
aI26640946
aI55617257
aI113465891
aI137493313
aI16039106
aI21694917
aI137429843
aI19936427
aI112695655
aI2475171
aI15692520
aI94295347
aI103930905
aI29459652
aI133646158
aI823380
aI14516207
aI14720196
aI14783840
aI18102250
aI101550603
aI12549842
aI17739338
aI136724768
aI7881762
aI17158924
aI21620306
aI91134188
aI27301340
aI23075215
aI10822182
aI110885876
aI20332439
aI131851497
aI17286113
aI14109867
aI12851232
aI963221
aI16782815
aI74565628
aI21451131
aI12936162
aI6055722
aI19704450
aI1204081
aI19802684
aI33656956
aI130580857
aI25511192
aI8104332
aI46882026
aI7508032
aI31077600
aI93380732
aI134528249
aI78942603
aI87399879
aI134571883
aI14608064
aI17371454
aI14082666
aI14261302
aI5397592
aI18678928
aI20733201
aI57693960
aI7606542
aI22170691
aI75240327
aI96776215
aI14054554
aI130923672
aI133408624
aI62152559
aI132912291
aI65654039
aI91489961
aI14149834
aI79323146
aI15807117
aI128690058
aI14290410
aI17771293
aI18872123
aI4192
aI23300722
aI609013
aI132320408
aI27761821
aI2100681
aI15691980
aI14814156
aI129173320
aI22814783
aI109906601
aI87916935
aI17350474
aI27158041
aI30516125
aI100294833
aI90055302
aI113008870
aI14113798
aI75374196
aI24504039
aI15677627
aI19391037
aI113182777
aI35310412
aI3735521
aI58144588
aI66393471
aI124660908
aI16321966
aI17835143
aI20165794
aI15908631
aI17113896
aI21320020
aI14334743
aI129779300
aI35694997
aI63177041
aI14130010
aI15819946
aI129227495
aI129194953
aI14058041
aI80480023
aI24764237
aI9711482
aI97810233
aI10387622
aI22249978
aI26495789
aI38011103
aI19756210
aI40835001
aI9250652
aI17285408
aI89210493
aI22580979
aI9561522
aI117170526
aI29201452
aI94072874
aI17166031
aI1277131
aI5428712
aI18157065
aI127304208
aI14648316
aI24996086
aI26196542
aI126859468
aI14846405
aI18171869
aI48384996
aI19928946
aI14065819
aI34125609
aI74987520
aI117218161
aI44453517
aI126512177
aI35510047
aI52159631
aI122568511
aI123578404
aI14984810
aI56531756
aI10149632
aI36299279
aI48517574
aI125755106
aI120058741
aI14912687
aI122085417
aI15937567
aI95265591
aI123651263
aI21089967
aI53701428
aI25888131
aI16805753
aI124676325
aI969851
aI16953741
aI16923603
aI29168374
aI100846382
aI41109174
aI66976752
aI116851365
aI16675453
aI35179966
aI14142538
aI22443780
aI124171414
aI17315799
aI1071261
aI22237831
aI20772763
aI32876810
aI16978780
aI124009893
aI47889357
aI1014131
aI17224163
aI19611682
aI17570115
aI16218690
aI93417485
aI42950171
aI55016030
aI123669427
aI12391072
aI68713067
aI16717918
aI96954959
aI14627408
aI45637628
aI15343042
aI101059675
aI8343142
aI24296979
aI21578685
aI5653502
aI14832359
aI71070443
aI118567074
aI94303608
aI90484998
aI117704839
aI117603066
aI94022878
aI15335065
aI36467208
aI18186447
aI6351142
aI57734167
aI15290718
aI21328543
aI12722442
aI19649358
aI102655404
aI19314010
aI66772522
aI122015591
aI9056082
aI15285364
aI103041273
aI69547793
aI71423
aI70302623
aI14234142
aI19525016
aI47435257
aI119847563
aI2358371
aI95216743
aI87309705
aI22715241
aI21870405
aI16866170
aI63163868
aI8926132
aI17128366
aI16576882
aI19543980
aI4142571
aI14455094
aI121575666
aI12822912
aI41125905
aI15673832
aI121529006
aI20824225
aI17326959
aI16499455
aI14296517
aI18693352
aI11373742
aI22883622
aI3735811
aI85595075
aI111031920
aI20539330
aI45129411
aI10711812
aI10708402
aI22488782
aI19355061
aI99786589
aI19696529
aI13580862
aI97533935
aI2455381
aI21882391
aI29674604
aI24308633
aI110532052
aI107212742
aI21675853
aI20578945
aI102560368
aI116932593
aI42207772
aI34439349
aI105944508
aI96761975
aI15741174
aI15874868
aI19745176
aI16665818
aI40958771
aI35695342
aI48435442
aI111578630
aI112727831
aI63984260
aI120080857
aI83582126
aI12230762
aI27089615
aI15043712
aI32633517
aI118869281
aI104856368
aI51405735
aI23548230
aI5985472
aI119347582
aI92368382
aI30769478
aI22753279
aI118997457
aI5493192
aI22315247
aI73881781
aI43516195
aI28271708
aI73619951
aI17109188
aI6230512
aI755292
aI72808549
aI104504815
aI90646102
aI24666455
aI17934041
aI117723812
aI90429631
aI117544529
aI14449869
aI118092905
aI11506612
aI117397322
aI19439166
aI24984259
aI42794899
aI76723819
aI117030305
aI117203594
aI5547642
aI24516142
aI117352777
aI21703632
aI1585501
aI22304575
aI16521996
aI7026222
aI17895003
aI16499379
aI10105882
aI105585669
aI116663722
aI53609363
aI36707318
aI112777122
aI14212163
aI74743974
aI115096942
aI94427387
aI84319703
aI110688350
aI21562228
aI97545475
aI15495287
aI102787318
aI100041645
aI91525435
aI24197851
aI17945452
aI15734865
aI31495485
aI21014947
aI24675155
aI16893896
aI28898436
aI13169342
aI18950040
aI13833
aI31735985
aI16302108
aI9398622
aI14130637
aI14323320
aI6724982
aI14757661
aI23913983
aI70529049
aI14541641
aI6618692
aI70055995
aI7440432
aI17934290
aI22998766
aI89520866
aI104570278
aI114145508
aI25803737
aI14378117
aI99350965
aI9893622
aI14217413
aI113531337
aI14342241
aI113531557
aI86195308
aI12165152
aI21873406
aI23272869
aI19697087
aI23774518
aI22293229
aI84789847
aI61161380
aI17386966
aI15281399
aI18138247
aI98417627
aI86718825
aI17742382
aI112232263
aI17761668
aI13214302
aI105438941
aI17107325
aI28198470
aI70613453
aI110784270
aI23488524
aI24567568
aI37837824
aI634673
aI10875952
aI109269481
aI111855378
aI107802848
aI91396916
aI61790128
aI16538124
aI17240569
aI15820547
aI21632454
aI77450514
aI34624564
aI9311362
aI23518614
aI111439975
aI34885894
aI70492413
aI92270811
aI93625744
aI109436120
aI108353311
aI98569744
aI20178255
aI110693852
aI106850629
aI14103252
aI11098
aI105488470
aI46172931
aI13934632
aI14081370
aI11596922
aI57563262
aI103629694
aI15056284
aI8101752
aI22150955
aI31337253
aI20776334
aI109648064
aI10103
aI71206413
aI109490192
aI2833781
aI22045881
aI103851238
aI106707617
aI109171762
aI94628965
aI90241199
aI66288379
aI7318502
aI18010223
aI20636829
aI46984450
aI15676023
aI76758433
aI24835413
aI14225755
aI90731557
aI29213293
aI3452911
aI14593767
aI662193
aI83906735
aI99584292
aI92944032
aI102121669
aI15404739
aI16482381
aI14998270
aI15316779
aI15574548
aI66970613
aI14363522
aI106250064
aI101261161
aI45558773
aI14996367
aI102928817
aI94883562
aI27454521
aI5051811
aI777369
aI104514798
aI19226982
aI14457554
aI104877913
aI103106584
aI103932722
aI90557629
aI94346002
aI10131312
aI80021897
aI20643115
aI16236795
aI102929653
aI104620054
aI88724886
aI36417857
aI7133762
aI15727803
aI21034855
aI104389489
aI14872465
aI18433318
aI31227911
aI10040
aI103711819
aI102522681
aI10759032
aI48798840
aI56979195
aI27390302
aI15225635
aI15554536
aI1168651
aI18463257
aI103324520
aI5355212
aI102492698
aI32222559
aI654433
aI99301088
aI14257803
aI22704309
aI80849524
aI15431580
aI79453813
aI88903348
aI617133
aI26192327
aI16547488
aI981101
aI11745002
aI14086661
aI19934239
aI16149989
aI71727997
aI26330604
aI27691807
aI37433917
aI101750115
aI95924021
aI44452915
aI18749121
aI99886291
aI4166101
aI101611664
aI18975732
aI15810846
aI21547669
aI66440255
aI65078243
aI19651124
aI16214986
aI20008374
aI12828432
aI96904398
aI10763802
aI25531757
aI100521255
aI87435362
aI12858752
aI37065145
aI18005515
aI62610996
aI16312251
aI12295972
aI775367
aI16079080
aI14179048
aI17760324
aI31184901
aI17660188
aI84152520
aI18261526
aI12877992
aI86148456
aI33167702
aI33136665
aI33228837
aI15239656
aI21304472
aI69147541
aI97724112
aI20687932
aI14957181
aI17088833
aI23480318
aI56683204
aI96623003
aI44751067
aI93399665
aI16808763
aI73904079
aI14756478
aI25503129
aI33317999
aI15423950
aI93828289
aI17733344
aI11195032
aI15457918
aI92168769
aI16108733
aI7117712
aI17306306
aI95175137
aI27324578
aI14756008
aI6160022
aI14679183
aI20791486
aI20792331
aI41424326
aI14861392
aI18668026
aI74242668
aI72555507
aI1751831
aI15704204
aI20784024
aI94525619
aI70773071
aI18820116
aI15041802
aI87384225
aI23945028
aI20831894
aI19148968
aI6229562
aI94359535
aI97072502
aI16874906
aI39525678
aI47302168
aI89693208
aI81575210
aI35451476
aI15092907
aI96055967
aI15515388
aI8297742
aI21159798
aI8932782
aI15645373
aI21440039
aI93840922
aI18264315
aI63320999
aI16142713
aI14364915
aI71006486
aI13335552
aI80888319
aI15038052
aI61848154
aI14084978
aI81058137
aI66522999
aI23819914
aI2371631
aI7651042
aI80873541
aI14360992
aI24661289
aI18716723
aI17482237
aI34641954
aI15363524
aI36353093
aI15183629
aI83860885
aI28338048
aI41128895
aI19047907
aI17077459
aI15444671
aI14811913
aI3610501
aI13456702
aI15921357
aI17834398
aI96104082
aI91127621
aI72371213
aI16449005
aI34307375
aI18801632
aI16913628
aI76960358
aI22913321
aI94057199
aI14169104
aI15452131
aI15277637
aI16113118
aI14746841
aI53371209
aI628413
aI14912923
aI7570682
aI18494822
aI8985402
aI14174666
aI20257701
aI91865139
aI94929825
aI94444616
aI90985954
aI64804788
aI17906958
aI13406342
aI60713112
aI94081271
aI52499630
aI83653369
aI6022542
aI94524975
aI24631705
aI14421424
aI14242721
aI4382841
aI8727082
aI91892829
aI6425412
aI47319950
aI14108534
aI88513630
aI34739864
aI61932305
aI22903767
aI86039805
aI9323952
aI17155722
aI27286818
aI92114566
aI17899617
aI13353462
aI39038706
aI18692954
aI18591618
aI15170781
aI26600651
aI44117023
aI47181236
aI52221947
aI70125160
aI14052579
aI56986263
aI20138085
aI43497435
aI15400221
aI48583608
aI17205935
aI48365437
aI34202531
aI26837371
aI6506472
aI24125250
aI71331793
aI17659179
aI37873618
aI8187802
aI56360081
aI20271813
aI23714403
aI19979006
aI14820798
aI5596882
aI92951942
aI24995332
aI8413442
aI36487521
aI8413682
aI81371225
aI92992121
aI15589282
aI16483380
aI15383800
aI86881460
aI19637834
aI70450893
aI67741873
aI33014673
aI82212320
aI43079204
aI14349642
aI17136444
aI51311534
aI30770591
aI17042832
aI90914801
aI35883
aI92116624
aI49653401
aI13715632
aI9364682
aI63115540
aI14431484
aI14113093
aI60421805
aI23437966
aI22655440
aI88644946
aI15393596
aI92070775
aI15936630
aI15785152
aI10352622
aI14202544
aI52046189
aI23670125
aI17866496
aI82605182
aI11640
aI84481150
aI91752823
aI20662843
aI16352915
aI55355401
aI44623430
aI16600590
aI20651018
aI53018799
aI8877162
aI90433733
aI14136669
aI59512534
aI50572622
aI45595395
aI5218611
aI19393587
aI16344219
aI88061368
aI13660302
aI9660102
aI60715051
aI17517326
aI24689158
aI22471002
aI21708724
aI90508696
aI49458040
aI87027384
aI90438179
aI57714701
aI21845767
aI20348278
aI90300296
aI85348928
aI11281282
aI16596970
aI88324324
aI90052358
aI19742934
aI55582236
aI87472039
aI17446188
aI24765941
aI29811239
aI3840891
aI41551251
aI83621380
aI43860784
aI32164446
aI6351902
aI19955169
aI89558392
aI24869272
aI84322395
aI48296291
aI14600243
aI16709987
aI35644661
aI15381532
aI15126796
aI86374607
aI23712908
aI15511711
aI711053
aI88397672
aI54100811
aI64736763
aI33751855
aI88846689
aI61723505
aI16541161
aI19775872
aI60383804
aI68150681
aI53345662
aI16440777
aI19722052
aI9996992
aI25978652
aI68105477
aI88084338
aI28488958
aI77216385
aI87668658
aI45131386
aI18276060
aI87962125
aI37654963
aI87968068
aI58476826
aI87637427
aI15463607
aI87294157
aI87316186
aI6270472
aI19909456
aI9490862
aI7949112
aI17932677
aI5951562
aI47926873
aI73253574
aI15406667
aI27597561
aI63465282
aI9277962
aI83887257
aI10477182
aI22855262
aI14047935
aI32522061
aI20464209
aI626103
aI16585526
aI2051851
aI18023897
aI736773
aI21886017
aI8341952
aI29118972
aI36277194
aI66150984
aI6474472
aI15406671
aI86524453
aI28948349
aI42377519
aI86148312
aI80893533
aI5854262
aI19486813
aI14828671
aI80656386
aI17099823
aI29856203
aI43004570
aI1999031
aI7621482
aI85621878
aI16948477
aI284553
aI85432880
aI7766612
aI18003892
aI19961241
aI20925732
aI8414112
aI25323881
aI15923305
aI28641527
aI11797892
aI15566111
aI84630939
aI21630444
aI84744524
aI84793331
aI807515
aI56380311
aI15802846
aI84051273
aI82075208
aI23026823
aI16317778
aI16697462
aI12523522
aI14236462
aI24731913
aI14473078
aI16501391
aI35816627
aI34804465
aI16549129
aI7033882
aI83852105
aI72791310
aI83709514
aI34681608
aI83647028
aI12802312
aI9504472
aI78541627
aI22152907
aI29045935
aI63534569
aI83185833
aI71589684
aI14388339
aI79855425
aI82842329
aI82863521
aI56455106
aI14197961
aI19258303
aI59429678
aI65882276
aI23056092
aI885611
aI1131351
aI9372812
aI20529051
aI5894872
aI5744062
aI36535337
aI82191377
aI20241309
aI13068822
aI21094168
aI65125552
aI80663204
aI14781546
aI61867320
aI51974983
aI6102902
aI12091892
aI62503283
aI60225561
aI12321832
aI65916257
aI24697051
aI59771837
aI5441842
aI81610170
aI36312643
aI77764507
aI22621226
aI80463704
aI54373
aI48564168
aI18760245
aI32253388
aI81306572
aI19616836
aI31331635
aI80953939
aI15982218
aI18176677
aI4637501
aI80832186
aI80556491
aI52782128
aI14659447
aI30857556
aI19105556
aI70197377
aI1085341
aI28865522
aI782750
aI16220895
aI53308870
aI50995111
aI22497139
aI80171136
aI41686265
aI68884081
aI80093100
aI22389340
aI23608547
aI14849763
aI45936478
aI19057225
aI14803469
aI77496938
aI14348992
aI15141761
aI69064542
aI12454292
aI29117364
aI33019911
aI6774722
aI29215467
aI77542588
aI21179194
aI58255552
aI17656270
aI49857534
aI81193
aI51401495
aI77546718
aI16476142
aI77541648
aI39636361
aI75632347
aI76893883
aI9570302
aI52546516
aI45297463
aI74806908
aI20443477
aI16576737
aI22137865
aI76577458
aI37713496
aI30387033
aI22881355
aI25126171
aI14570604
aI11253552
aI15378709
aI19710622
aI7814092
aI19396978
aI17881609
aI860171
aI20580928
aI14885888
aI20786016
aI73575528
aI8244542
aI71644963
aI15640462
aI14783284
aI17623984
aI14179723
aI14457657
aI14238594
aI38299789
aI14461406
aI76370879
aI20410791
aI18699570
aI41350104
aI17050123
aI12307552
aI36187794
aI71369297
aI15253680
aI75993059
aI1731831
aI64263218
aI75030367
aI19074415
aI27453206
aI17636447
aI21984758
aI19789118
aI18107749
aI14549169
aI1104451
aI21003444
aI9211932
aI57948351
aI48242281
aI62994047
aI13592562
aI13651922
aI9834362
aI18935294
aI54353
aI16173516
aI1784431
aI70693919
aI69192510
aI52459135
aI29114548
aI19302265
aI52211890
aI58680963
aI56945276
aI16277062
aI12212502
aI16882939
aI47778572
aI73992691
aI70935524
aI41640225
aI30071551
aI21599596
aI20531349
aI15536860
aI14691653
aI1133821
aI20993834
aI60712491
aI34919245
aI22545127
aI31220122
aI56604066
aI16645247
aI55802207
aI19084896
aI22636696
aI39083253
aI18412793
aI16367986
aI9635452
aI15987882
aI12007082
aI11566972
aI23942477
aI10919502
aI61797879
aI17597951
aI72924093
aI26269539
aI17980735
aI44463664
aI46093878
aI43297821
aI17410824
aI72357409
aI15723289
aI42910136
aI16335191
aI72370415
aI1276121
aI18457536
aI16019661
aI15841875
aI19575003
aI15781123
aI19785636
aI72097747
aI71610793
aI46670463
aI71783183
aI16644070
aI40210018
aI17542066
aI71869160
aI15457481
aI14315148
aI8444092
aI14371696
aI70702062
aI14547109
aI21878695
aI56386775
aI66319029
aI15432546
aI29393880
aI15209805
aI20283367
aI24352885
aI17676241
aI30325216
aI8359682
aI43552063
aI1725461
aI54266451
aI64725055
aI44636619
aI19156285
aI20886618
aI28527476
aI62542765
aI671623
aI69833362
aI7190952
aI11455892
aI14275926
aI1501541
aI28085197
aI37612405
aI15377934
aI23752787
aI15207835
aI70350364
aI23377653
aI65092262
aI10409602
aI14506212
aI15740972
aI684133
aI20742431
aI48103870
aI69548744
aI38745083
aI46218605
aI18311108
aI801282
aI22622813
aI34933854
aI14215286
aI41253540
aI36824541
aI28264575
aI34929720
aI14478339
aI11400132
aI26167236
aI39974434
aI22579138
aI58668083
aI65379291
aI40139465
aI29701347
aI67992047
aI20905417
aI14690599
aI12400042
aI60140528
aI22197926
aI11697632
aI52424419
aI66117304
aI60766418
aI14763827
aI36672300
aI16534680
aI17004260
aI35750045
aI14937580
aI34237123
aI45367613
aI49882603
aI1688671
aI38705507
aI9643542
aI15089542
aI16375057
aI64345344
aI62104473
aI27300456
aI21435812
aI36370242
aI42633682
aI14446386
aI66936409
aI22711711
aI15627575
aI1224891
aI17173440
aI17519136
aI16463613
aI34240434
aI14165863
aI965131
aI66319273
aI33990943
aI54920603
aI29946700
aI14883159
aI15949356
aI57611235
aI17286901
aI15242135
aI20830100
aI62060326
aI57056743
aI699583
aI14681579
aI6843672
aI14473710
aI15075517
aI14136479
aI64252257
aI19177827
aI6480582
aI18230272
aI64760050
aI17521340
aI14218642
aI17070589
aI15235746
aI14698516
aI53429200
aI16720372
aI16254287
aI1945
aI5096561
aI1389501
aI918181
aI60031833
aI19672034
aI31046878
aI21784622
aI9865972
aI16138831
aI19875124
aI6017372
aI16171510
aI37924129
aI19044998
aI20979012
aI62260169
aI839271
aI18593105
aI55165185
aI62920108
aI16422002
aI62927842
aI48168029
aI15638098
aI40212757
aI20811491
aI13743
aI50808619
aI11963002
aI52007128
aI9969622
aI14090303
aI3737961
aI48269148
aI61311057
aI20746089
aI17063238
aI46498845
aI14275931
aI6103232
aI9178402
aI32520050
aI14973660
aI22574003
aI14963480
aI1008181
aI60787699
aI61507031
aI49692525
aI43455056
aI48088622
aI18782014
aI15057943
aI23443122
aI14144932
aI45453430
aI12952252
aI15285945
aI27014631
aI11758792
aI45672626
aI17619709
aI14991020
aI7823652
aI59163209
aI15174054
aI56059854
aI27342429
aI59632819
aI52852239
aI23153016
aI34078170
aI13441492
aI14515438
aI53353081
aI20895753
aI6490642
aI18877098
aI28329020
aI15890648
aI51863141
aI13764992
aI56335888
aI41775045
aI58284927
aI31616958
aI16391314
aI14248481
aI17759659
aI43455700
aI18394126
aI45810342
aI15605842
aI30790109
aI15861732
aI26108842
aI1054621
aI14422559
aI57085837
aI7069062
aI41317825
aI35721941
aI48370560
aI34327671
aI9928752
aI37051699
aI18138440
aI28007485
aI14747297
aI40887373
aI15907925
aI16633324
aI54460529
aI18085780
aI46477387
aI56030955
aI43734827
aI17039024
aI4266401
aI31179169
aI15312297
aI28386964
aI15118954
aI50687303
aI5863782
aI48663451
aI28851760
aI40312584
aI1518031
aI20747126
aI16670612
aI22623967
aI54309213
aI47330546
aI23874261
aI19207743
aI29129356
aI37950324
aI31896096
aI16614354
aI14153851
aI15971192
aI27011556
aI52474971
aI37656141
aI45560749
aI33882279
aI44200564
aI26345060
aI18427698
aI13310832
aI18536637
aI37619621
aI23481416
aI13200452
aI53607003
aI47708266
aI39129468
aI31379215
aI15987188
aI9354652
aI126153
aI8675732
aI19864166
aI25798824
aI29720491
aI28318420
aI29368067
aI50348344
aI14264393
aI31583082
aI17815243
aI26497141
aI9160872
aI14194355
aI14884687
aI21286806
aI17323477
aI18453393
aI12057822
aI17866320
aI8316622
aI45479474
aI24220055
aI710023
aI47334390
aI20442368
aI49901919
aI47993260
aI15289783
aI16282120
aI5935022
aI44366931
aI50417831
aI18028906
aI16294526
aI36769917
aI20775893
aI11156782
aI10170542
aI41598420
aI17925448
aI19559203
aI16594064
aI38227767
aI20323362
aI7151272
aI14091626
aI15138905
aI14041832
aI18216801
aI5878822
aI47524729
aI10076902
aI2278861
aI49382917
aI31768816
aI637703
aI3237221
aI39291882
aI46016451
aI15821565
aI43133182
aI21055260
aI18055083
aI18183967
aI30633045
aI15292891
aI11782262
aI43805219
aI28809670
aI44737633
aI20763768
aI24809728
aI14528717
aI45205060
aI14220759
aI14703327
aI27910852
aI3653761
aI19062092
aI25422962
aI43074395
aI44675196
aI46463823
aI31694240
aI24851731
aI22171426
aI15366985
aI24875976
aI18858099
aI5529882
aI11823292
aI17963577
aI11040522
aI21115548
aI20231685
aI20965205
aI1737411
aI17984441
aI36083059
aI8884482
aI20553710
aI46074105
aI19864285
aI46351428
aI17632474
aI14229198
aI17328559
aI19113515
aI38561101
aI33602341
aI29146642
aI6792632
aI13103
aI46101181
aI2895661
aI45781789
aI15123133
aI14517538
aI13290772
aI16544904
aI36386698
aI16876995
aI3651281
aI14288769
aI37831410
aI44135875
aI3252491
aI24735866
aI45260558
aI39521405
aI44089426
aI15224596
aI44423291
aI1109551
aI32780102
aI15770684
aI10735842
aI365813
aI2857661
aI28647156
aI44657631
aI15748788
aI755249
aI24906998
aI13714442
aI17364318
aI5500282
aI21705842
aI39014562
aI30224955
aI22937258
aI30506100
aI44145483
aI41116355
aI17266349
aI13649292
aI30815404
aI14466083
aI21286250
aI18079826
aI17873041
aI15255266
aI7351612
aI43687552
aI43664690
aI14819516
aI23843205
aI31261487
aI17493663
aI20564743
aI14772739
aI11851982
aI43307566
aI21089956
aI28033549
aI2808351
aI15367197
aI17000737
aI17841549
aI16308550
aI16311122
aI16664794
aI17580913
aI17448279
aI17519314
aI20145013
aI9113472
aI12278492
aI37934928
aI13857052
aI15925179
aI16271207
aI29191150
aI6681902
aI16205224
aI37600777
aI42242782
aI15796865
aI693133
aI19966168
aI3185951
aI14773920
aI6699712
aI22174372
aI17834969
aI39830686
aI17298700
aI30513878
aI5947152
aI18178651
aI24181624
aI17517080
aI9264302
aI19699176
aI31039502
aI616573
aI11835862
aI16223450
aI26707367
aI25050736
aI41343510
aI6345802
aI40141316
aI15884538
aI20376601
aI11593452
aI20260144
aI23356292
aI17430372
aI12304392
aI2994331
aI17251375
aI24985627
aI35196216
aI40473776
aI34125574
aI6211402
aI16781846
aI25770395
aI4418691
aI15675432
aI26484827
aI24244419
aI680693
aI14447668
aI22753244
aI764087
aI16486915
aI14124633
aI1483401
aI18332147
aI15847866
aI11082952
aI7443832
aI20689688
aI10022
aI17145396
aI1972
aI23877579
aI22625756
aI21117658
aI17746273
aI39401749
aI14917418
aI35095699
aI36015129
aI14370487
aI17002482
aI7559582
aI35282820
aI69583
aI19068513
aI20821155
aI14498316
aI27464661
aI14894554
aI28837012
aI15243240
aI1422481
aI15703901
aI11103302
aI20166826
aI25401339
aI14781473
aI26604990
aI32603766
aI36683653
aI14664605
aI5433552
aI26163979
aI26397487
aI38077712
aI24440757
aI9388782
aI32117690
aI36350200
aI10667402
aI15953203
aI36509465
aI25288894
aI16519389
aI17141335
aI6942062
aI17864422
aI14735369
aI29356765
aI14396188
aI15423337
aI7779722
aI14273479
aI37193539
aI32035748
aI6817322
aI20301902
aI1348501
aI15083347
aI23294132
aI31555965
aI14185170
aI31288865
aI14640763
aI75503
aI20473456
aI14625272
aI36337638
aI36325212
aI30950584
aI14672008
aI17461810
aI14987006
aI18358227
aI8176242
aI16710203
aI34611760
aI16458048
aI36066297
aI19969393
aI24692931
aI15722510
aI29633658
aI21992360
aI15664544
aI14208043
aI20167623
aI790914
aI15370302
aI8853322
aI13587
aI3214231
aI21410026
aI8959132
aI35689987
aI10765022
aI947441
aI24222422
aI11231752
aI22437518
aI15026770
aI21250312
aI18610934
aI11607
aI434513
aI15123910
aI20692585
aI16503750
aI14915300
aI21947576
aI25392926
aI19440479
aI15874053
aI3518851
aI6099532
aI7570912
aI14612878
aI808235
aI33168450
aI16641263
aI28599351
aI18265656
aI14137749
aI1219381
aI20788676
aI18245045
aI19310677
aI16481273
aI22652729
aI23718855
aI1441661
aI8566722
aI781548
aI89903
aI30102412
aI17879228
aI15940539
aI27632964
aI15891110
aI19666867
aI17550837
aI6576222
aI21193285
aI18570445
aI4257551
aI22831671
aI13048452
aI26583812
aI8028532
aI5685182
aI22780471
aI7272242
aI18361553
aI17480356
aI15046469
aI15380638
aI33880586
aI32371976
aI16583009
aI34214878
aI21334779
aI24711338
aI13486302
aI17535541
aI19268909
aI32955623
aI19917178
aI1148081
aI31571081
aI16140700
aI16325659
aI14902468
aI17643743
aI17374092
aI24553038
aI3960551
aI22343060
aI15205696
aI14057124
aI22083562
aI14952654
aI32692341
aI12245
aI8451032
aI24597745
aI17635685
aI29742445
aI16681191
aI15414713
aI2116071
aI17635530
aI19652968
aI14116788
aI11595422
aI913
aI9698862
aI19592119
aI14216825
aI14069394
aI14128399
aI789993
aI14586562
aI20098164
aI27718312
aI15315375
aI22147531
aI15489044
aI20178713
aI15654907
aI27987632
aI16710909
aI22025329
aI20236725
aI17470253
aI14598777
aI19691700
aI17621712
aI8061002
aI5690612
aI5996402
aI21679496
aI19518946
aI16962051
aI15805332
aI6265382
aI14192703
aI14112637
aI25580529
aI15928214
aI14600036
aI26489934
aI28385751
aI16697200
aI28765664
aI17375376
aI19854839
aI14276760
aI7495502
aI13300422
aI18642461
aI14849609
aI16369504
aI24008788
aI17850849
aI21078886
aI14599059
aI24845560
aI18642008
aI20849222
aI20699625
aI26175532
aI13203442
aI14399455
aI17112593
aI790627
aI23417113
aI26080036
aI5805332
aI17285365
aI9346882
aI17298704
aI3471901
aI10423562
aI15929310
aI17523060
aI21685897
aI6247112
aI2671
aI25323994
aI14421777
aI20769871
aI674483
aI16508414
aI8758062
aI15352212
aI14400086
aI19069011
aI20766488
aI24676209
aI18212356
aI22739398
aI7210372
aI17456346
aI13005642
aI12319262
aI8344732
aI16521248
aI7305532
aI663563
aI18818531
aI18731695
aI13718562
aI14415351
aI17055740
aI14098948
aI48053
aI14265615
aI17336102
aI638263
aI17462006
aI22517358
aI16451233
aI19842383
aI16739704
aI20795497
aI2138491
aI65923
aI15735186
aI8741672
aI18726289
aI17237273
aI20146904
aI18733658
aI9313062
aI5519272
aI19253925
aI1703441
aI12743252
aI14584030
aI16110992
aI6107142
aI19507543
aI14304686
aI15246755
aI14193454
aI11799002
aI20535016
aI16354598
aI13267662
aI9454462
aI7269872
aI14658950
aI16870970
aI19384995
aI18934334
aI16727207
aI21515918
aI21025211
aI19187967
aI14620442
aI8295012
aI5540242
aI18755088
aI1576061
aI19621593
aI19920203
aI19112320
aI15871237
aI18191577
aI3576761
aI5612502
aI20867594
aI14262018
aI9889072
aI3805371
aI17644995
aI7417462
aI16646614
aI18545112
aI18168248
aI17223779
aI18695747
aI18561890
aI14947092
aI17273138
aI20156176
aI17676539
aI18610414
aI20865346
aI9332442
aI9733542
aI13116
aI16802124
aI14634720
aI19309536
aI41483
aI12846212
aI3551981
aI17136259
aI14998580
aI14935639
aI4058321
aI14902853
aI14906080
aI3994811
aI20112746
aI2800441
aI9070792
aI7628152
aI17800657
aI2493291
aI8548452
aI20131842
aI2790981
aI19852683
aI20079958
aI17006292
aI17936153
aI86094609
aI78884773
aI8286702
aI286097690
aI286097533
aI6797522
aI292526467
aI311539323
aI211061155
aI20909151
aI46141441
aI145243044
aI16240349
aI14821718
aI22634684
aI20476532
aI326135331
aI13872112
aI1402661
aI315163739
aI188947792
aI247373424
aI237279971
aI123914255
aI321018434
aI25096704
aI14306296
aI18210723
aI17105515
aI90201383
aI49723206
aI140130330
aI94401813
aI189201410
aI22851117
aI114166942
aI43861067
aI300639711
aI14769627
aI20355911
aI107822637
aI16178067
aI273870303
aI14467704
aI3376281
aI321574786
aI196890671
aI140009710
aI266327536
aI14048164
aI17163609
aI312231066
aI54694029
aI86357739
aI14410582
aI142007440
aI66207916
aI14458675
aI119078402
aI240368194
aI78672634
aI313647118
aI3007491
aI70377736
aI118705629
aI145637907
aI20861121
aI6819592
aI36372153
aI18531791
aI81852919
aI27254476
aI18530121
aI15452685
aI5660312
aI302079835
aI143129961
aI144634132
aI34737026
aI150428241
aI177958826
aI9826112
aI304415737
aI10439912
aI17242168
aI230633531
aI147563197
aI216700830
aI18334083
aI131286770
aI13095962
aI10729952
aI163803343
aI293169345
aI194562818
aI87159119
aI79148142
aI15606837
aI56092073
aI96778977
aI246033684
aI274607577
aI31562932
aI38790830
aI6565012
aI8209332
aI202612289
aI14062344
aI79219366
aI263626447
aI1596531
aI289177338
aI289877888
aI30837112
aI284023017
aI281048190
aI22105603
aI62535577
aI128605036
aI250761810
aI18173885
aI180114960
aI9810192
aI20219699
aI148790697
aI9950302
aI3723281
aI226197462
aI17900339
aI22604085
aI202164660
aI28568919
aI273605398
aI65691842
aI18159838
aI18305039
aI207145660
aI251805159
aI14657902
aI16338945
aI7258242
aI50100556
aI12588682
aI20118445
aI76162584
aI166948921
aI270358530
aI18867892
aI14454031
aI18815864
aI266318109
aI249140218
aI20216394
aI22458458
aI250074550
aI22902579
aI688143
aI17473317
aI14209229
aI169888049
aI259435739
aI79984472
aI21537022
aI17690089
aI260682656
aI17656456
aI8354872
aI29806279
aI245361288
aI14112732
aI134584226
aI15352815
aI253122403
aI35846463
aI17882795
aI22133238
aI23595516
aI25482998
aI55282583
aI17274517
aI132835286
aI123305344
aI16408747
aI15070678
aI123213638
aI29062438
aI43593
aI251231182
aI6383342
aI134100019
aI2279261
aI128959871
aI218796063
aI237579724
aI251440835
aI18511783
aI1444971
aI40193589
aI26968530
aI84706976
aI9393652
aI16102762
aI95150962
aI9523892
aI4887471
aI14967340
aI17851886
aI226544444
aI22628725
aI114245473
aI77824473
aI149304798
aI231236107
aI17583992
aI238438353
aI168826960
aI7766872
aI110154686
aI79317785
aI17082366
aI74925721
aI207621872
aI50941799
aI29947174
aI11540492
aI227020265
aI238504735
aI12491902
aI23049109
aI222781671
aI2465351
aI22916155
aI17960662
aI213726754
aI10209812
aI117245806
aI24400717
aI222097216
aI16237477
aI123608108
aI16461618
aI3640211
aI14684095
aI16042848
aI15179215
aI72512313
aI22760727
aI23673893
aI17444474
aI7692762
aI221011592
aI102282810
aI14019432
aI172688898
aI47101296
aI140497492
aI142889849
aI216557182
aI1941471
aI46651425
aI180410163
aI186459851
aI14587419
aI19623755
aI4802411
aI13418452
aI198968190
aI144112977
aI144134238
aI54511856
aI211952509
aI192625880
aI55797501
aI191503226
aI42936497
aI102153250
aI14281221
aI12143922
aI204026396
aI16951109
aI105922268
aI21851226
aI78041090
aI16011794
aI189395506
aI151934168
aI183922242
aI123977904
aI199446694
aI168920090
aI19181763
aI14397632
aI36835665
aI901191
aI14866855
aI17129143
aI154626535
aI138754144
aI18904265
aI54814705
aI55266259
aI14688076
aI20511256
aI108971153
aI50466338
aI138373810
aI178490069
aI14057026
aI48815236
aI32851103
aI17045907
aI17348872
aI15430516
aI24850504
aI14662055
aI138992681
aI14878845
aI28884190
aI26940495
aI16837707
aI157723050
aI102636101
aI159301459
aI11700172
aI17507189
aI43787399
aI121766472
aI104449048
aI155213666
aI44317226
aI24663950
aI131877373
aI11584672
aI40880057
aI129670999
aI152210701
aI122888190
aI151590616
aI8125452
aI130897483
aI117241614
aI7691542
aI63112592
aI28366132
aI98442616
aI98674418
aI11073902
aI81871911
aI21562691
aI14622451
aI131729968
aI89871543
aI120592193
aI119068800
aI137954572
aI97413802
aI122731007
aI129418852
aI103862529
aI17646260
aI17054786
aI15132928
aI50083295
aI128189610
aI26992791
aI18447686
aI19496867
aI19106230
aI60839400
aI123897506
aI20138796
aI123916146
aI97318920
aI113979881
aI96069597
aI125725040
aI104058169
aI14287670
aI88200608
aI17287678
aI89721102
aI120056509
aI114328548
aI51248055
aI16455714
aI62089873
aI110752168
aI40268631
aI16594263
aI75964957
aI118033210
aI115873118
aI15209571
aI30271756
aI97388513
aI87911982
aI6339112
aI14364128
aI56323378
aI14564148
aI91306336
aI13365752
aI106696115
aI39713727
aI40675000
aI15084931
aI71519476
aI45810047
aI101694134
aI9972082
aI73223584
aI94705360
aI35537333
aI42834380
aI97218553
aI22173676
aI5348232
aI83580430
aI7037962
aI22609643
aI49760627
aI73186801
aI20963093
aI39714156
aI14525121
aI70799888
aI21826302
aI78335324
aI27896773
aI13585232
aI17190993
aI59895210
aI17249037
aI53689631
aI43862478
aI21082735
aI17307627
aI82937147
aI14657212
aI19767198
aI15157949
aI5877612
aI16851081
aI17385314
aI17923074
aI44857184
aI79142013
aI78028431
aI25052085
aI36708319
aI75210018
aI15232432
aI14913657
aI45572832
aI14679529
aI54219717
aI54818999
aI14679935
aI33408224
aI35343764
aI36071987
aI51389400
aI27902071
aI55321700
aI21867415
aI21790990
aI33485740
aI35683031
aI44394652
aI29454081
aI37301199
aI14931839
aI15264851
aI3326891
aI317733904
aI57459599
aI337165396
aI10382022
aI329175906
aI1220921
aI29445018
aI217000220
aI85526005
aI282231254
aI282503675
aI329170279
aI54166562
aI34624310
aI301279482
aI328952738
aI97231658
aI31249608
aI10729572
aI14746983
aI74680134
aI290724477
aI309470703
aI271941887
aI648783
aI304451277
aI315658147
aI81195370
aI14919272
aI92461194
aI94340292
aI16347514
aI69424452
aI258376455
aI19091906
aI34223671
aI14102919
aI37915333
aI270512165
aI293249615
aI27421678
aI28310576
aI310835764
aI310211873
aI21616093
aI21422842
aI14628878
aI309130000
aI292041172
aI306086641
aI6941902
aI21832615
aI263637798
aI226646669
aI16974616
aI301925555
aI18919195
aI21624699
aI280863564
aI14646922
aI161630907
aI215919065
aI138430349
aI20110806
aI267869479
aI237548858
aI71701378
aI263561282
aI54838066
aI148103797
aI277418279
aI120283528
aI15897465
aI14297477
aI264449046
aI267577735
aI11999372
aI20311199
aI9653952
aI128186658
aI17621919
aI258197327
aI233450513
aI115358121
aI55009507
aI22097700
aI52566779
aI130518385
aI97627672
aI809472
aI14176990
aI38589052
aI220387529
aI14344469
aI3604381
aI201535588
aI64496701
aI19300667
aI22839233
aI193331992
aI32148879
aI91718178
aI15016510
aI241034474
aI234424477
aI156450466
aI229211190
aI1945551
aI50403955
aI130570965
aI126858667
aI74668895
aI27454322
aI224255455
aI10246172
aI14976965
aI186562409
aI15133186
aI168318916
aI162759442
aI82388093
aI218628029
aI88401412
aI12925542
aI223507414
aI65625290
aI89000170
aI143432654
aI14107363
aI15264625
aI219682576
aI36360952
aI84689590
aI38371266
aI21615322
aI82071241
aI63210244
aI210071240
aI56791535
aI5514762
aI141239347
aI201679731
aI21764013
aI50185177
aI158694730
aI802793
aI47009146
aI160575273
aI2703201
aI17048731
aI4791061
aI66429081
aI115097756
aI185112181
aI32110246
aI23038536
aI176294512
aI34382438
aI35005086
aI133424312
aI168501464
aI161247750
aI51693086
aI25988741
aI150653627
aI134695444
aI113845066
aI145000800
aI8129562
aI17932552
aI78496544
aI10178852
aI17093617
aI48219214
aI25390350
aI102331324
aI39992669
aI49783533
aI111407412
aI120534776
aI20655558
aI121368843
aI18189672
aI7411272
aI116555688
aI46588106
aI77195945
aI53655370
aI34227274
aI96806343
aI15248722
aI38628623
aI99755117
aI20961822
aI15503880
aI84739376
aI6055872
aI65811983
aI25270230
aI85307415
aI17781322
aI10718322
aI19186627
aI28170146
aI16955325
aI82300372
aI29434932
aI67696645
aI22544610
aI17901885
aI10718
aI80576406
aI78723262
aI78630793
aI75323080
aI14847857
aI15140694
aI59286307
aI2931501
aI20168274
aI57021285
aI38845053
aI15045918
aI31426534
aI29051490
aI45248913
aI49546130
aI44975872
aI28815201
aI17880360
aI44132780
aI12473952
aI43697237
aI43596441
aI8453452
aI39007238
aI34299333
aI24194195
aI16822535
aI17749802
aI18799951
aI15287016
aI180406037
aI37229482
aI98968860
aI287359840
aI256214974
aI125438845
aI14400908
aI16044114
aI138034277
aI82309685
aI104182465
aI20639543
aI14341674
aI71181654
aI3424971
aI293143064
aI45533787
aI18806614
aI281347137
aI261425916
aI249259963
aI105617108
aI19241002
aI9308132
aI113325387
aI12091202
aI241930111
aI19515674
aI34703903
aI207307966
aI9841852
aI43797490
aI285368746
aI292527885
aI14709678
aI231546717
aI5552492
aI760181
aI328807671
aI270712494
aI122493992
aI14147202
aI8295852
aI10267952
aI8846642
aI15866956
aI18892866
aI21339104
aI13656942
aI250620596
aI1235181
aI14892191
aI100577253
aI14115101
aI15174213
aI44211227
aI114404895
aI24664151
aI3018841
aI12032612
aI10258232
aI10634
aI817853
aI9362062
aI19431056
aI9228142
aI76796577
aI293360256
aI99753238
aI11978972
aI19996935
aI779576
aI214455366
aI241959982
aI125696029
aI14361456
aI277669391
aI99850435
aI15340770
aI16001595
aI267653716
aI24017581
aI284347056
aI314784643
aI146376731
aI15531160
aI8089982
aI7154452
aI49009473
aI52131791
aI16741425
aI41888215
aI23494713
aI82625240
aI32364910
aI15440144
aI24987772
aI14646134
aI18431458
aI14850716
aI236924496
aI16352012
aI307043256
aI133407991
aI3437061
aI20972148
aI100048752
aI289915499
aI233221058
aI14213260
aI71281497
aI105821864
aI14846165
aI2033461
aI282298187
aI680013
aI9805422
aI801593
aI16212224
aI19521799
aI51787650
aI5752532
aI32454652
aI6901412
aI2334221
aI7747372
aI16004102
aI21442633
aI12377822
aI9097042
aI110494357
aI16226484
aI324658161
aI16262197
aI324545240
aI113133795
aI1272591
aI42819392
aI14630025
aI318154385
aI241182904
aI99128618
aI21069098
aI121077318
aI21719520
aI247303389
aI251079169
aI132497346
aI82971362
aI15865617
aI18048011
aI14593071
aI286329161
aI192533547
aI46866169
aI264106834
aI9038092
aI14493421
aI22597397
aI8818262
aI18159625
aI16701316
aI245009913
aI15424983
aI645383
aI310242803
aI37072846
aI18716765
aI90506652
aI11189462
aI11561712
aI15916612
aI16388986
aI141155789
aI198233021
aI309942197
aI307804656
aI115979509
aI7604502
aI27846791
aI20977787
aI17591852
aI18589370
aI148105682
aI18104730
aI306940386
aI165395751
aI18975987
aI14839109
aI36738495
aI126468796
aI31805620
aI19907658
aI217109932
aI42584365
aI211561170
aI128308956
aI304914909
aI159459050
aI43867038
aI159950527
aI289005244
aI15489332
aI14607444
aI58171264
aI22882552
aI101609404
aI27831204
aI302647070
aI24868876
aI29987953
aI274055496
aI15648675
aI185416198
aI41794476
aI49011061
aI521
aI259716338
aI67321559
aI299156287
aI14735589
aI14321863
aI192320681
aI104103814
aI10101372
aI59501202
aI69524784
aI24660920
aI33174252
aI8675642
aI36010101
aI172241049
aI70096167
aI270835192
aI284003975
aI191345817
aI19208447
aI26446476
aI18573976
aI168876634
aI77204769
aI292054148
aI228689999
aI90737815
aI17996612
aI884561
aI16736028
aI289956343
aI1483
aI29721408
aI16709483
aI5384812
aI14850190
aI99610083
aI61869916
aI124272565
aI269783270
aI19174965
aI193527528
aI17188650
aI273641183
aI118105232
aI22158664
aI183114453
aI19901390
aI281504986
aI106120718
aI170043056
aI280453783
aI11063142
aI238032018
aI7227482
aI156975319
aI236434821
aI59429287
aI261903878
aI85775158
aI48737760
aI172501032
aI121596066
aI53020577
aI237417527
aI5422872
aI15495438
aI274364981
aI221398617
aI18538228
aI153154765
aI50040434
aI199193846
aI16989366
aI198926541
aI35239658
aI38903885
aI10102832
aI225045702
aI24408580
aI54057636
aI29716013
aI252790268
aI274695729
aI109945814
aI122382330
aI274473471
aI67443
aI191874133
aI14328674
aI146472624
aI33645183
aI43191390
aI14431307
aI272171650
aI113446678
aI27035386
aI52226787
aI268327159
aI191096722
aI193692800
aI115305009
aI270688419
aI234756249
aI116253947
aI36643794
aI2564391
aI241438646
aI17486892
aI29091741
aI10564
aI18580175
aI8972852
aI222086446
aI20851240
aI12705022
aI264991693
aI264167978
aI25101708
aI14258670
aI1759671
aI24892080
aI118549842
aI87591220
aI99852036
aI25111829
aI158954120
aI145730700
aI69679499
aI747403
aI5058241
aI27477225
aI253862741
aI246992256
aI211104907
aI42534282
aI225793729
aI259165023
aI95661281
aI114264579
aI24918909
aI258492772
aI127298145
aI18451863
aI17271646
aI29742562
aI2087371
aI52528452
aI5607342
aI179064763
aI15413507
aI75772898
aI248051313
aI237738266
aI221323138
aI251731276
aI39497514
aI132442181
aI142112977
aI126062970
aI45301910
aI250125138
aI138424948
aI219757107
aI106514979
aI7678432
aI23978125
aI17980495
aI20867831
aI18074136
aI10424702
aI127189074
aI21390167
aI75330471
aI18871706
aI248331426
aI78176188
aI86590177
aI18858915
aI247201767
aI68491510
aI15210658
aI231455368
aI241937546
aI225138752
aI21641558
aI8675002
aI83348978
aI143985784
aI41860047
aI36189349
aI14445818
aI61984950
aI242499400
aI28715595
aI8081502
aI32171735
aI49343487
aI95974012
aI6340322
aI205700474
aI39321347
aI18081389
aI22901850
aI149669522
aI14353273
aI54339378
aI102512818
aI147654407
aI3306321
aI2825931
aI35806086
aI35764158
aI16394676
aI220067825
aI239573110
aI239395764
aI56986737
aI231533659
aI16580517
aI126119133
aI39419454
aI83689415
aI23646069
aI40226713
aI158596170
aI27197991
aI6241622
aI11636022
aI43284313
aI102530507
aI16423423
aI57695662
aI18231119
aI232679374
aI156650064
aI26776252
aI25576531
aI92584915
aI168163904
aI109634292
aI19787389
aI139842220
aI144853901
aI11936822
aI37531627
aI54693776
aI5774792
aI16908692
aI21072696
aI783389
aI14788200
aI179934157
aI123392425
aI76616290
aI68473184
aI5407472
aI17853610
aI92036448
aI14556298
aI142165992
aI214974486
aI16447964
aI9588882
aI14230317
aI19874368
aI122961556
aI186402253
aI14777792
aI229886962
aI21504088
aI4606701
aI7431992
aI228111110
aI12321542
aI19017100
aI806545
aI7541002
aI169504944
aI16293554
aI23973450
aI11262212
aI215356317
aI216888995
aI223835623
aI71883873
aI221464232
aI222427758
aI154515456
aI14824854
aI75033130
aI43858022
aI39522765
aI42837663
aI19457616
aI19590207
aI192480111
aI58412665
aI81619550
aI49314717
aI16822053
aI3410641
aI14060367
aI218580707
aI92820033
aI147168041
aI190648867
aI64182332
aI14145654
aI96981942
aI18672453
aI28357711
aI44286744
aI64372295
aI26750301
aI16376171
aI15762184
aI161996218
aI10291642
aI760051
aI207257924
aI15658180
aI186779221
aI31120617
aI767285
aI45117017
aI19819029
aI165145468
aI15358822
aI39490703
aI59708030
aI175996080
aI71749516
aI203460949
aI689193
aI20079904
aI3176751
aI19994892
aI762426
aI185634381
aI50452985
aI19829838
aI48667315
aI8073252
aI8126672
aI188728975
aI186021423
aI139358992
aI695043
aI21253324
aI11784882
aI15703007
aI9771752
aI17090240
aI25113280
aI13727622
aI18157601
aI89582754
aI381463
aI79992060
aI5671662
aI170422082
aI135958595
aI175806672
aI9412332
aI14937574
aI152240434
aI17131100
aI23308854
aI186378239
aI19781783
aI83674424
aI12562192
aI43085085
aI135307352
aI184560171
aI183791347
aI6621712
aI6594482
aI10534182
aI8774252
aI61738181
aI19603042
aI46476164
aI20186459
aI57607487
aI179830142
aI114842428
aI1467521
aI8448712
aI43341438
aI15132434
aI110383715
aI10078002
aI26710605
aI43224527
aI133682418
aI41659586
aI14325486
aI162840076
aI9736692
aI165555309
aI14327760
aI164226736
aI160888544
aI106665095
aI20851374
aI96155642
aI6392382
aI12575842
aI87887368
aI159752570
aI2025101
aI14659264
aI145697780
aI36061793
aI15133729
aI20923211
aI146425664
aI111918684
aI17564546
aI16199426
aI10677052
aI29788415
aI16565733
aI1635081
aI19390634
aI148345395
aI16243491
aI12434302
aI21303650
aI96547647
aI7448492
aI41884996
aI9621392
aI94065199
aI69546563
aI142218886
aI14247612
aI16426949
aI14195510
aI3077771
aI15110900
aI106677233
aI21617760
aI2566921
aI42042081
aI14316909
aI93608434
aI15340776
aI104120220
aI15120018
aI29169663
aI13746132
aI96563631
aI17965717
aI41169556
aI46588470
aI116434308
aI34252173
aI31695944
aI19500028
aI14401934
aI61755699
aI77063
aI120056635
aI5721522
aI15833026
aI71696099
aI132966265
aI26718892
aI791558
aI108238992
aI1674391
aI43065824
aI103551019
aI58824810
aI76906335
aI64784439
aI124471503
aI76934942
aI74325704
aI122790383
aI92013510
aI23845565
aI15278517
aI53787192
aI4794061
aI23186799
aI14474787
aI115214647
aI16853139
aI28419061
aI15761592
aI114397246
aI113533179
aI17115324
aI108333227
aI111946028
aI7169192
aI97511794
aI20443984
aI7379782
aI1790201
aI19625726
aI12483902
aI47364026
aI1113541
aI75536955
aI2753761
aI15658221
aI99528648
aI21396117
aI25073
aI105000308
aI45379929
aI80825554
aI19740700
aI2500491
aI20647833
aI46399081
aI15583449
aI14516463
aI92238667
aI36927762
aI14064734
aI23635166
aI73403478
aI17143130
aI15720316
aI9557192
aI90321378
aI90656731
aI7554032
aI88721475
aI90457318
aI50107316
aI14990246
aI88482104
aI70111997
aI20439636
aI8967612
aI50468526
aI69131216
aI34222855
aI84317554
aI5439642
aI22192327
aI83634843
aI9351282
aI14498930
aI5618162
aI10856842
aI64422872
aI14648425
aI54605441
aI15797620
aI79669656
aI31385233
aI23480852
aI16080703
aI76787093
aI14931703
aI20066079
aI5206471
aI75994824
aI23602331
aI74405301
aI28522186
aI12432262
aI30256574
aI6637672
aI46726924
aI15268736
aI14558757
aI45624768
aI66253649
aI16109940
aI9082002
aI64507334
aI59364218
aI17384357
aI1992991
aI14024572
aI61720646
aI30713182
aI60968442
aI38815849
aI12844732
aI58124065
aI9822552
aI28976826
aI55525935
aI52351185
aI53390439
aI25123346
aI48704685
aI48002844
aI18147622
aI21963051
aI6739442
aI49075284
aI48056870
aI19668737
aI18088637
aI16557634
aI41610362
aI15218199
aI24533378
aI5862372
aI33756517
aI15744184
aI15255483
aI16422162
aI17698857
aI43708640
aI7495132
aI43308368
aI14114752
aI17588357
aI15650275
aI35869537
aI16868571
aI38914775
aI20767734
aI35434984
aI36132508
aI17001181
aI9995642
aI28662489
aI15125281
aI14352600
aI15967625
aI32365839
aI26658576
aI30707706
aI18762599
aI1535441
aI14598750
aI22600584
aI15894614
aI18800615
aI28131948
aI27600423
aI27777989
aI14810958
aI21009200
aI17150807
aI12877112
aI22911883
aI2061191
aI24571939
aI22698829
aI23265883
aI5399092
aI14494804
aI14337307
aI933081
aI22146400
aI18714962
aI7841172
aI20668534
aI16188971
aI10034192
aI19542750
aI21317900
aI21215966
aI7813382
aI21080411
aI20994428
aI13573452
aI20578795
aI15860016
aI17864641
aI15208068
aI618323
aI19587943
aI15469336
aI19347721
aI18673704
aI17451808
aI6564002
aI19020806
aI14068410
aI122853
aI18246193
aI16817883
aI626233
aI17591611
aI3352771
aI17673855
aI17616213
aI17419904
aI13424432
aI16223475
aI17027856
aI16825292
aI16981475
aI21213
aI742433
aI16626870
aI16325696
aI14085763
aI13516502
aI16142717
aI16055477
aI14773040
aI14375680
aI2911421
aI7987862
aI1028401
aI15208867
aI14109687
aI12314432
aI14675374
aI14943073
aI15096033
aI13516812
aI1564081
aI1103111
aI14080177
aI15105781
aI15087439
aI1615611
aI14936766
aI14923980
aI14868795
aI14858710
aI2173451
aI680873
aI14354134
aI9720292
aI2558171
aI14093886
aI13720912
aI12216282
aI12447012
aI12359732
aI11172912
aI6300762
aI1706
aI9526982
aI2618
aI4567901
aI21223
aI7372062
aI838491
aI666913
aI5483052
aI6806472
aI4368901
aI1165221
aI5714162
aI3211891
aI62883
aI1541421
aI34437285
aI131413052
aI14643434
aI14743399
aI95718001
aI183630775
aI109670931
aI17536657
aI312123260
aI65624791
aI19116096
aI280248819
aI323542154
aI87469911
aI304217291
aI80983021
aI186500135
aI134610558
aI35315715
aI185987386
aI68051191
aI16616217
aI297343129
aI116860801
aI303937674
aI233485321
aI251030959
aI28946306
aI44113880
aI19028632
aI20431586
aI323227305
aI47062640
aI73329181
aI304609384
aI1428851
aI15834121
aI22430486
aI59473521
aI17804400
aI335826297
aI174921359
aI29241965
aI33945558
aI335290169
aI50048422
aI290034353
aI14775116
aI49328555
aI243885486
aI16682734
aI212908390
aI49113946
aI43299059
aI188949635
aI165570078
aI47634573
aI49592343
aI181771708
aI157412428
aI21635985
aI19448471
aI306327487
aI264735335
aI21456033
aI211118198
aI16357666
aI55532526
aI18747868
aI138184876
aI16103133
aI60192516
aI20225629
aI333748806
aI42113624
aI129355285
aI82635081
aI21763636
aI44592804
aI17518294
aI39966558
aI84442060
aI16526202
aI57188756
aI32845955
aI46826762
aI14715942
aI48844084
aI49961156
aI22462997
aI190766117
aI14704482
aI257293112
aI300078714
aI4557991
aI7748942
aI211568037
aI332784576
aI87399347
aI132311449
aI300106669
aI91824601
aI86782015
aI259244239
aI47487925
aI292319546
aI28743967
aI293039966
aI285196964
aI183939615
aI330269344
aI195680815
aI20654611
aI177778318
aI16105705
aI20669837
aI36336234
aI13483582
aI197186075
aI190972993
aI233772370
aI15076019
aI306026626
aI295884039
aI329778209
aI120168379
aI12798812
aI63171560
aI19076653
aI284071322
aI155510040
aI329559328
aI93564582
aI45276914
aI15179856
aI136494725
aI14471155
aI328929610
aI115985305
aI34654138
aI288116456
aI15067693
aI101447362
aI23845899
aI17198171
aI112769384
aI271371009
aI182355798
aI5469652
aI14682218
aI236309486
aI154742234
aI323696853
aI51329062
aI122652900
aI14273386
aI14126742
aI326075929
aI276591563
aI88408565
aI22310885
aI105220744
aI12409662
aI185046547
aI40004193
aI21151922
aI77060364
aI114373860
aI255776266
aI190168633
aI209452419
aI89442664
aI13257922
aI9460282
aI15041514
aI179297142
aI15254735
aI15003484
aI62836870
aI124227339
aI217163826
aI20548898
aI125645540
aI292201648
aI86340064
aI174223048
aI94856925
aI95626381
aI311695831
aI15393890
aI23858391
aI27107341
aI250800901
aI13102112
aI66343255
aI132922063
aI23763812
aI35176946
aI40769340
aI1345911
aI20162556
aI14147955
aI220799045
aI16116811
aI36748375
aI208312922
aI92948652
aI272035372
aI310493598
aI314126332
aI37737395
aI38536574
aI14144238
aI33624781
aI306492630
aI19289938
aI84255707
aI9533882
aI315325461
aI18606637
aI217139517
aI296709684
aI24444484
aI16837679
aI49923263
aI15653685
aI17544858
aI268790281
aI17202648
aI152360033
aI17090127
aI23953280
aI241485342
aI55334030
aI17745961
aI4364771
aI24730033
aI233193673
aI45075092
aI287423626
aI15645248
aI151589235
aI77031036
aI150906425
aI296461615
aI12081762
aI139604997
aI124199635
aI46163424
aI305506724
aI705213
aI305270329
aI126774105
aI277941609
aI175695543
aI91649523
aI69506257
aI15947694
aI298705649
aI9051462
aI304450492
aI301331526
aI14382834
aI203929152
aI220494980
aI302773146
aI19918145
aI39459109
aI61093431
aI168378298
aI14142237
aI39092737
aI44871299
aI35467792
aI273644388
aI817891
aI60163
aI112850579
aI48361880
aI18185547
aI17974614
aI17850982
aI299606540
aI288882021
aI299115067
aI117992729
aI35921443
aI34100158
aI20850379
aI298146821
aI225579277
aI187862419
aI70673897
aI10325942
aI297163618
aI296888865
aI296738853
aI84620796
aI281149210
aI160476060
aI265079553
aI38934588
aI48343096
aI8634652
aI38633165
aI14470879
aI20773302
aI3319421
aI25843776
aI48819879
aI295616072
aI17411015
aI270162605
aI75347450
aI295078048
aI12075422
aI247332021
aI253523195
aI275302844
aI19059517
aI91703866
aI226083051
aI46331304
aI95033038
aI6183812
aI111309694
aI250082279
aI104799946
aI67432352
aI18508795
aI103025687
aI161971965
aI29897913
aI51483337
aI188083122
aI240670503
aI288470734
aI91653122
aI18413428
aI104038494
aI4045
aI29241863
aI42424432
aI280543692
aI163021201
aI60632974
aI64884601
aI15595196
aI67892848
aI180770812
aI17018343
aI287642821
aI161154492
aI277219019
aI286472364
aI76771345
aI95981639
aI82169865
aI250520733
aI260142065
aI255856705
aI227075703
aI41546093
aI57933169
aI14314716
aI188315091
aI276895537
aI270973302
aI18495936
aI283182583
aI119003973
aI20256190
aI139439088
aI253219536
aI227202154
aI222514018
aI14235803
aI208020898
aI25484638
aI132328669
aI23992853
aI17567533
aI222580354
aI198524054
aI40438052
aI65164811
aI94735585
aI17930729
aI18043764
aI4860401
aI17210301
aI137060385
aI280446398
aI18985237
aI116880409
aI275574802
aI2643411
aI93607914
aI5627542
aI273303799
aI105648689
aI256422216
aI49826260
aI67291179
aI17002736
aI16529162
aI14632640
aI103352711
aI22873026
aI18537748
aI37226249
aI24617810
aI16992651
aI6019382
aI24744414
aI11338302
aI39032235
aI255916895
aI212275098
aI278123918
aI135550531
aI18790746
aI81367143
aI5968812
aI34919479
aI23595295
aI45389843
aI42606345
aI17204465
aI16030316
aI19264386
aI59112574
aI16409110
aI28352865
aI174548200
aI23236293
aI205648421
aI57379868
aI276399865
aI215375324
aI14890633
aI27848594
aI274654408
aI158734390
aI78377692
aI21964759
aI81088739
aI231753336
aI128078009
aI22446469
aI13999422
aI10455202
aI271935623
aI148282147
aI167894282
aI34689807
aI263566135
aI51350427
aI27461072
aI48319217
aI17261236
aI14157290
aI169870518
aI271322925
aI176739644
aI270487740
aI263066090
aI248937526
aI88437067
aI19599271
aI256941772
aI264356466
aI260539598
aI21969894
aI33531002
aI18338267
aI664443
aI13215962
aI14740104
aI56698697
aI246351506
aI20433324
aI17899123
aI703753
aI223468490
aI173682449
aI266213033
aI81855670
aI202668130
aI11246242
aI266223888
aI16990512
aI16050655
aI116215955
aI21667813
aI197077087
aI62880046
aI22264891
aI14104314
aI15367824
aI125978327
aI56736511
aI26021406
aI95424189
aI61877083
aI14112324
aI9695762
aI221133854
aI256034329
aI41570792
aI255552716
aI61049487
aI963441
aI121351323
aI157105388
aI259936095
aI29242893
aI193747861
aI14718474
aI26015589
aI77344688
aI82801305
aI180668837
aI14621740
aI76672824
aI257591171
aI19762085
aI77281866
aI241874035
aI249118671
aI218546969
aI210019785
aI42040371
aI182756868
aI49917704
aI113137231
aI38815427
aI54977404
aI42684509
aI253817226
aI29832739
aI20056672
aI45496456
aI19078064
aI245703828
aI48086874
aI91169926
aI39081381
aI17657107
aI15331830
aI175379846
aI197528599
aI22088497
aI219982940
aI135870210
aI254918681
aI254203423
aI232852534
aI186881613
aI80694078
aI108327852
aI81911166
aI19601176
aI60116439
aI19237909
aI197400360
aI26461245
aI70091658
aI98442472
aI243663426
aI14178616
aI183573356
aI2647031
aI23351345
aI246261074
aI1910921
aI20214538
aI246008263
aI59450500
aI117141301
aI113575176
aI203029604
aI74761120
aI54980022
aI113756437
aI248672826
aI188620913
aI237817704
aI34933931
aI27553466
aI61490564
aI9100612
aI210934913
aI27270530
aI173875395
aI122345999
aI7397012
aI238319200
aI207784472
aI124321922
aI245413022
aI41954079
aI52722791
aI187107323
aI155204489
aI244963420
aI18805849
aI243756942
aI38669922
aI42096628
aI182376416
aI146883615
aI16405157
aI15007292
aI87470660
aI85786470
aI90687655
aI19214098
aI14835646
aI17885060
aI14060882
aI194711606
aI52699387
aI77775266
aI91427959
aI116593065
aI21405560
aI16000175
aI156350345
aI14351134
aI26715769
aI111096398
aI15359551
aI190342152
aI170936795
aI69581766
aI15026134
aI17257929
aI96602314
aI109672263
aI58394279
aI49009167
aI113158805
aI214852898
aI233603101
aI233474237
aI108084393
aI138091451
aI11466352
aI19232687
aI44188532
aI881031
aI14186021
aI45148296
aI236571177
aI804416
aI41159229
aI55312970
aI24602968
aI5475502
aI93930418
aI27974512
aI15972351
aI195559634
aI235098553
aI42892633
aI23969370
aI51482890
aI121681254
aI14568822
aI171023910
aI14370378
aI226934001
aI14079912
aI226293904
aI171630440
aI223383808
aI19364097
aI158390563
aI17645885
aI170399488
aI15443472
aI80621227
aI27287997
aI117241741
aI30501338
aI14370400
aI22672228
aI211374321
aI6581352
aI225027535
aI207262792
aI92413185
aI29499604
aI18557141
aI15328388
aI14991791
aI222732934
aI14297455
aI8206162
aI33320088
aI15083719
aI19226438
aI141511742
aI164199417
aI15341308
aI19993243
aI909681
aI59262993
aI17615570
aI121791582
aI197746085
aI20462308
aI191161083
aI14582631
aI35584912
aI111661463
aI72667420
aI22124352
aI39666143
aI101779960
aI49097238
aI15135958
aI15976070
aI217052974
aI27321110
aI106682447
aI14958733
aI6297412
aI50332782
aI44684233
aI743153
aI12332012
aI46343739
aI15302620
aI208784789
aI33363
aI14969788
aI219128735
aI218899618
aI187647216
aI148065337
aI11050032
aI15425104
aI14586235
aI107085588
aI5552112
aI202105000
aI201740962
aI32458627
aI147691754
aI146325309
aI47334775
aI1512291
aI20369990
aI5733792
aI176554053
aI215088605
aI150962036
aI17762348
aI15634516
aI65351166
aI10367382
aI48318106
aI19982520
aI41643145
aI17877981
aI169171030
aI14811412
aI8297852
aI120540735
aI89155446
aI208032614
aI209426304
aI153068659
aI16126402
aI28431449
aI207918429
aI203984227
aI21131818
aI128637102
aI95702229
aI8389722
aI5271381
aI6442112
aI23600282
aI963891
aI15474951
aI64294040
aI75096251
aI16329329
aI15532415
aI105880780
aI15438559
aI14183687
aI129892260
aI15783939
aI95957934
aI14303518
aI24036140
aI17395715
aI126576912
aI15579313
aI178082190
aI153815890
aI76103153
aI180926512
aI8391462
aI127107475
aI62840439
aI17006197
aI15175262
aI15920458
aI171205828
aI100200426
aI16857953
aI24050421
aI14286920
aI66346487
aI57405011
aI39580754
aI186502429
aI110078056
aI14843109
aI15767844
aI14584357
aI17875746
aI95723417
aI28634278
aI14813149
aI19338250
aI164667527
aI17119766
aI18425003
aI124143045
aI182569032
aI25518280
aI19572802
aI11926472
aI23800397
aI15093747
aI6014792
aI16035280
aI41277829
aI9774252
aI7018432
aI15762429
aI163739950
aI163961566
aI17623441
aI144808161
aI12114182
aI46290038
aI173150286
aI159828032
aI7159882
aI13883712
aI12198292
aI160256084
aI17804188
aI22298995
aI650323
aI28282442
aI33870470
aI173540640
aI125067301
aI173136568
aI24178051
aI18303517
aI24996960
aI174523605
aI19900688
aI15276763
aI28414306
aI47805306
aI6158052
aI21381397
aI20702977
aI17724954
aI9452852
aI86078396
aI14123680
aI14507001
aI44694987
aI88278788
aI165397911
aI19780678
aI75076740
aI123036170
aI57902399
aI83214149
aI80839666
aI43568518
aI138795836
aI17276588
aI17947151
aI16949684
aI115360470
aI75655848
aI127184046
aI4924121
aI22916720
aI38754051
aI14221013
aI18340319
aI40034172
aI110682807
aI17018994
aI90826157
aI166604261
aI289055767
aI176023888
aI288797798
aI307685554
aI329080072
aI25050162
aI329455823
aI285737082
aI79132152
aI43969788
aI7957942
aI219082889
aI18143096
aI58805068
aI4927
aI18967380
aI321235865
aI57258811
aI20673299
aI14068633
aI249624836
aI228638667
aI309679071
aI313468896
aI50738231
aI283569661
aI80402458
aI646483
aI308048417
aI109522792
aI94068560
aI150822090
aI123346061
aI299343394
aI39638013
aI2099891
aI24194235
aI96774698
aI25858856
aI16536804
aI10474512
aI11795172
aI40438400
aI17013286
aI9331282
aI1090561
aI160742008
aI15922252
aI27960072
aI61867966
aI14330105
aI18699208
aI21415450
aI7026482
aI7537992
aI259364584
aI78466144
aI257664564
aI261214179
aI188449063
aI235390968
aI58857264
aI14074755
aI244546286
aI247473277
aI84282513
aI41143339
aI14301157
aI232696257
aI230173439
aI228362223
aI17059691
aI32970465
aI14579998
aI37275623
aI32582073
aI128549148
aI100012748
aI205153673
aI29473905
aI214247356
aI25541101
aI70084953
aI15475467
aI28293400
aI168496515
aI38962811
aI191000528
aI191001310
aI115635136
aI191699497
aI133799314
aI44923162
aI193327050
aI191205857
aI192718520
aI192687875
aI109210864
aI814346
aI23480800
aI714913
aI176333790
aI17855872
aI155782666
aI150285875
aI92984290
aI174011253
aI172047234
aI139780009
aI111729706
aI69897298
aI85406171
aI5455452
aI148394581
aI16684279
aI144569536
aI82913388
aI68409479
aI118946083
aI121457307
aI7541902
aI116033007
aI109310198
aI16474358
aI52753873
aI37876978
aI22993164
aI87027773
aI22754464
aI11082552
aI17421537
aI73226289
aI80835132
aI83092252
aI41776401
aI14855015
aI16840678
aI2373871
aI82227424
aI84318759
aI13283812
aI24715763
aI77440559
aI63933540
aI54887214
aI67607451
aI25333708
aI66377814
aI68716938
aI48139347
aI54895187
aI39974990
aI64343336
aI64343122
aI62953462
aI31224185
aI52749713
aI58419877
aI14074424
aI14943194
aI53339095
aI54664091
aI49999020
aI53753278
aI50056502
aI52386964
aI42142097
aI51165772
aI23449152
aI43809259
aI40320769
aI40947894
aI18264411
aI22598967
aI15685084
aI15928798
aI17589547
aI19233104
aI15363691
aI13860612
aI31393719
aI31465558
aI20485057
aI15278760
aI18428762
aI18391299
aI18699683
aI6823322
aI14186545
aI21291911
aI1322741
aI25478838
aI22161961
aI17725039
aI11950072
aI18242822
aI18608443
aI17268853
aI15613175
aI15930039
aI17845904
aI6315032
aI17548152
aI16292633
aI16253881
aI6541322
aI16900419
aI18045205
aI16893628
aI16142616
aI17190347
aI15959150
aI14342118
aI14061863
aI12318502
aI14594723
aI6739812
aI15585201
aI15582860
aI15576626
aI15438161
aI15387018
aI14657171
aI14729068
aI14649354
aI10316422
aI14411423
aI14414564
aI13601092
aI14055920
aI10487982
aI14145331
aI12946702
aI813286
aI2396591
aI795
a.